(dp0
S'24'
p1
(dp2
S'26890502'
p3
S'4.8'
p4
sS'26748673'
p5
S'6.4'
p6
sS'26430636'
p7
S'6.0'
p8
sS'26698897'
p9
S'6.0'
p10
sS'27173314'
p11
S'6.0'
p12
sS'26580232'
p13
S'8.7'
p14
sS'25858758'
p15
S'5.3'
p16
ssS'25'
p17
(dp18
S'26910087'
p19
S'6.0'
p20
sS'26616894'
p21
S'6.0'
p22
sS'26605946'
p23
S'4.8'
p24
sg11
g12
sS'26331839'
p25
S'6.0'
p26
sS'26426194'
p27
S'6.0'
p28
sS'25790761'
p29
S'7.0'
p30
ssS'26'
p31
(dp32
S'26315270'
p33
S'5.7'
p34
sS'26662193'
p35
S'6.0'
p36
sS'26861685'
p37
S'6.0'
p38
sg5
g6
sS'26796665'
p39
S'6.0'
p40
sS'26897427'
p41
S'6.6'
p42
sS'27089371'
p43
S'2.9'
p44
ssS'27'
p45
(dp46
S'26616690'
p47
S'6.4'
p48
sS'25912266'
p49
S'3.2'
p50
sg37
g38
sg33
g34
sg23
g24
sS'26747274'
p51
S'5.1'
p52
sS'26811367'
p53
S'6.3'
p54
ssS'20'
p55
(dp56
g47
g48
sS'26785793'
p57
S'6.0'
p58
sS'27073291'
p59
S'6.0'
p60
sS'26775933'
p61
S'7.2'
p62
sg11
g12
sg13
g14
sg43
g44
ssS'21'
p63
(dp64
S'20452324'
p65
S'6.0'
p66
sS'26905469'
p67
S'6.0'
p68
sg21
g22
sS'26747869'
p69
S'6.0'
p70
sS'26857654'
p71
S'6.0'
p72
sS'26586766'
p73
S'6.0'
p74
sS'26309965'
p75
S'6.0'
p76
ssS'22'
p77
(dp78
S'24719063'
p79
S'7.9'
p80
sS'27086953'
p81
S'6.0'
p82
sg39
g40
sg13
g14
sS'26774722'
p83
S'6.0'
p84
sS'26607969'
p85
S'6.0'
p86
sS'26260853'
p87
S'7.1'
p88
ssS'23'
p89
(dp90
g33
g34
sS'27114417'
p91
S'6.0'
p92
sg41
g42
sS'26882457'
p93
S'6.0'
p94
sg43
g44
sg83
g84
sS'25986662'
p95
S'6.0'
p96
ssS'28'
p97
(dp98
S'26754233'
p99
S'6.0'
p100
sS'26885074'
p101
S'6.0'
p102
sg37
g38
sg67
g68
sS'26796664'
p103
S'6.0'
p104
sS'26728669'
p105
S'6.0'
p106
sS'25966085'
p107
S'7.4'
p108
ssS'29'
p109
(dp110
g99
g100
sg37
g38
sS'26762744'
p111
S'6.0'
p112
sg107
g108
sS'26985857'
p113
S'6.0'
p114
sg27
g28
sS'26602933'
p115
S'4.9'
p116
ssS'0'
p117
(dp118
S'26348414'
p119
S'4.8'
p120
sS'26924141'
p121
S'6.0'
p122
sg81
g82
sS'26351864'
p123
S'6.0'
p124
sS'26827040'
p125
S'6.0'
p126
sg73
g74
sS'26581175'
p127
S'6.0'
p128
ssS'4'
p129
(dp130
g91
g92
sS'20505982'
p131
S'6.9'
p132
sg39
g40
sS'27076492'
p133
S'6.0'
p134
sS'26992383'
p135
S'6.0'
p136
sg69
g70
sg29
g30
ssS'8'
p137
(dp138
S'27056313'
p139
S'3.2'
p140
sg13
g14
sS'26657126'
p141
S'8.2'
p142
sS'26818313'
p143
S'6.0'
p144
sg73
g74
sS'26995475'
p145
S'6.0'
p146
sS'26612285'
p147
S'6.0'
p148
ssS'59'
p149
(dp150
S'26365631'
p151
S'3.6'
p152
sS'26826398'
p153
S'7.2'
p154
sS'26647117'
p155
S'7.2'
p156
sg143
g144
sS'26756119'
p157
S'5.7'
p158
sS'26316956'
p159
S'4.8'
p160
sg111
g112
ssS'58'
p161
(dp162
S'27059130'
p163
S'8.4'
p164
sg141
g142
sS'27019527'
p165
S'8.5'
p166
sg135
g136
sg159
g160
sS'26972258'
p167
S'6.0'
p168
sg95
g96
ssS'55'
p169
(dp170
g139
g140
sg91
g92
sg155
g156
sg83
g84
sg73
g74
sg51
g52
sg53
g54
ssS'54'
p171
(dp172
g35
g36
sS'24284175'
p173
S'6.0'
p174
sg105
g106
sg93
g94
sS'26862058'
p175
S'6.0'
p176
sg121
g122
sS'26336253'
p177
S'6.7'
p178
ssS'57'
p179
(dp180
g139
g140
sg13
g14
sg39
g40
sg133
g134
sg25
g26
sg93
g94
sS'26266924'
p181
S'4.2'
p182
ssS'56'
p183
(dp184
S'26425068'
p185
S'7.5'
p186
sg57
g58
sg87
g88
sg105
g106
sS'26597901'
p187
S'6.0'
p188
sg3
g4
sg113
g114
ssS'51'
p189
(dp190
g175
g176
sg131
g132
sS'26426099'
p191
S'3.5'
p192
sS'27113517'
p193
S'7.5'
p194
sg157
g158
sg43
g44
sS'26352445'
p195
S'5.3'
p196
ssS'50'
p197
(dp198
g101
g102
sg57
g58
sS'26729868'
p199
S'6.0'
p200
sS'25920326'
p201
S'6.0'
p202
sg165
g166
sg123
g124
sg145
g146
ssS'53'
p203
(dp204
g99
g100
sg57
g58
sg79
g80
sg69
g70
sS'26935436'
p205
S'3.9'
p206
sg25
g26
sg29
g30
ssS'52'
p207
(dp208
S'26760160'
p209
S'6.3'
p210
sg99
g100
sS'26698000'
p211
S'5.0'
p212
sS'10755361'
p213
S'6.0'
p214
sg15
g16
sg87
g88
sg73
g74
ssS'88'
p215
(dp216
g91
g92
sg103
g104
sg205
g206
sg35
g36
sg193
g194
sg127
g128
sg29
g30
ssS'89'
p217
(dp218
g99
g100
sg79
g80
sg191
g192
sg9
g10
sg193
g194
sg159
g160
sg27
g28
ssS'82'
p219
(dp220
g99
g100
sS'20388198'
p221
S'6.4'
p222
sS'26863778'
p223
S'6.0'
p224
sg187
g188
sg83
g84
sg65
g66
sg145
g146
ssS'83'
p225
(dp226
g33
g34
sg223
g224
sg141
g142
sg103
g104
sg7
g8
sg25
g26
sg123
g124
ssS'80'
p227
(dp228
g153
g154
sg113
g114
sg187
g188
sg181
g182
sg53
g54
sg65
g66
sg27
g28
ssS'81'
p229
(dp230
g47
g48
sg95
g96
sg5
g6
sS'26654269'
p231
S'6.0'
p232
sg107
g108
sg53
g54
sg147
g148
ssS'86'
p233
(dp234
g139
g140
sg101
g102
sg37
g38
sg25
g26
sg163
g164
sg147
g148
sg181
g182
ssS'87'
p235
(dp236
g213
g214
sg9
g10
sg205
g206
sg83
g84
sg163
g164
sg87
g88
sS'26984538'
p237
S'6.0'
p238
ssS'84'
p239
(dp240
g221
g222
sg19
g20
sg21
g22
sg205
g206
sg23
g24
sg147
g148
sg195
g196
ssS'85'
p241
(dp242
g125
g126
sg131
g132
sg165
g166
sg93
g94
sg175
g176
sg15
g16
sg195
g196
ssS'3'
p243
(dp244
g119
g120
sg121
g122
sg67
g68
sg19
g20
sg135
g136
sg75
g76
sg127
g128
ssS'7'
p245
(dp246
g33
g34
sg139
g140
sg151
g152
sg211
g212
sg119
g120
sg165
g166
sg9
g10
ssS'39'
p247
(dp248
g101
g102
sg57
g58
sg75
g76
sg19
g20
sg25
g26
sg157
g158
sg95
g96
ssS'38'
p249
(dp250
g49
g50
sg119
g120
sg223
g224
sg167
g168
sg41
g42
sg201
g202
sg115
g116
ssS'33'
p251
(dp252
g209
g210
sg67
g68
sg75
g76
sg141
g142
sg41
g42
sg113
g114
sg29
g30
ssS'32'
p253
(dp254
g153
g154
sg173
g174
sg37
g38
sg141
g142
sg81
g82
sg135
g136
sg163
g164
ssS'31'
p255
(dp256
S'26752106'
p257
S'4.6'
p258
sg213
g214
sg191
g192
sg41
g42
sg201
g202
sg111
g112
sg29
g30
ssS'30'
p259
(dp260
g101
g102
sg187
g188
sg211
g212
sg213
g214
sg231
g232
sg69
g70
sg51
g52
ssS'37'
p261
(dp262
S'26930375'
p263
S'7.4'
p264
sg123
g124
sg143
g144
sg175
g176
sg115
g116
sg201
g202
sg29
g30
ssS'36'
p265
(dp266
g37
g38
sg7
g8
sg145
g146
sg85
g86
sg113
g114
sg201
g202
sg29
g30
ssS'35'
p267
(dp268
g81
g82
sS'25917973'
p269
S'8.6'
p270
sg193
g194
sg135
g136
sg7
g8
sg175
g176
sg111
g112
ssS'34'
p271
(dp272
g39
g40
sS'26995719'
p273
S'6.0'
p274
sg23
g24
sg135
g136
sS'25884801'
p275
S'7.2'
p276
sg43
g44
sg95
g96
ssS'60'
p277
(dp278
g139
g140
sg35
g36
sg155
g156
sg181
g182
sS'26966580'
p279
S'6.0'
p280
sg53
g54
sg27
g28
ssS'61'
p281
(dp282
g19
g20
sg5
g6
sg231
g232
sg187
g188
sg177
g178
sg39
g40
sg111
g112
ssS'62'
p283
(dp284
g91
g92
sg79
g80
sg81
g82
sg25
g26
sg51
g52
sg75
g76
sg145
g146
ssS'63'
p285
(dp286
g155
g156
sg263
g264
sg111
g112
sg125
g126
sg107
g108
sg147
g148
sg29
g30
ssS'64'
p287
(dp288
g151
g152
sg173
g174
sg187
g188
sg125
g126
sg95
g96
sg201
g202
sg195
g196
ssS'65'
p289
(dp290
g35
g36
sg173
g174
sg93
g94
sg107
g108
sg85
g86
sg163
g164
sg115
g116
ssS'66'
p291
(dp292
g47
g48
sg35
g36
sg67
g68
sg41
g42
sg23
g24
sg85
g86
sg95
g96
ssS'67'
p293
(dp294
g173
g174
sg263
g264
sg9
g10
sg11
g12
sg93
g94
sg163
g164
sg237
g238
ssS'68'
p295
(dp296
g3
g4
sg141
g142
sg133
g134
sg123
g124
sg143
g144
sg107
g108
sg43
g44
ssS'69'
p297
(dp298
g199
g200
sg153
g154
sS'26985857'
p299
S'6.0'
p300
sg155
g156
sg39
g40
sg105
g106
sg95
g96
ssS'2'
p301
(dp302
g257
g258
sg213
g214
sg19
g20
sg81
g82
sg269
g270
sg85
g86
sg159
g160
ssS'6'
p303
(dp304
g185
g186
sg57
g58
sg141
g142
sg205
g206
sg123
g124
sg87
g88
sg27
g28
ssS'99'
p305
(dp306
g151
g152
sg153
g154
sg173
g174
sg211
g212
sg133
g134
sg143
g144
sg163
g164
ssS'98'
p307
(dp308
g257
g258
sg101
g102
sg151
g152
sg263
g264
sg273
g274
sg13
g14
sg201
g202
ssS'91'
p309
(dp310
g185
g186
sg223
g224
sg127
g128
sg23
g24
sg193
g194
sg15
g16
sg201
g202
ssS'90'
p311
(dp312
g3
g4
sg173
g174
sg95
g96
sg41
g42
sg61
g62
sg143
g144
sg87
g88
ssS'93'
p313
(dp314
g221
g222
sg9
g10
sg25
g26
sg83
g84
sg107
g108
sg159
g160
sg163
g164
ssS'92'
p315
(dp316
g121
g122
sg39
g40
sg11
g12
sg157
g158
sg177
g178
sg65
g66
sg195
g196
ssS'95'
p317
(dp318
g221
g222
sg223
g224
sg213
g214
sg187
g188
sg205
g206
sg181
g182
sg123
g124
ssS'94'
p319
(dp320
g151
g152
sg91
g92
sg19
g20
sg263
g264
sg111
g112
sg75
g76
sg147
g148
ssS'97'
p321
(dp322
g47
g48
sg123
g124
sg175
g176
sg43
g44
sg113
g114
sg145
g146
sg181
g182
ssS'96'
p323
(dp324
g153
g154
sg5
g6
sg187
g188
sg131
g132
sg157
g158
sg51
g52
sg27
g28
ssS'11'
p325
(dp326
g91
g92
sg103
g104
sg39
g40
sg269
g270
sg155
g156
sg113
g114
sg145
g146
ssS'10'
p327
(dp328
g139
g140
sg153
g154
sg39
g40
sg269
g270
sg15
g16
sg95
g96
sg145
g146
ssS'13'
p329
(dp330
g209
g210
sg257
g258
sg37
g38
sg123
g124
sg125
g126
sg177
g178
sg65
g66
ssS'12'
p331
(dp332
g131
g132
sg9
g10
sg193
g194
sg25
g26
sg177
g178
sg147
g148
sg195
g196
ssS'15'
p333
(dp334
g33
g34
sg231
g232
sg39
g40
sg143
g144
sg125
g126
sg85
g86
sg15
g16
ssS'14'
p335
(dp336
g199
g200
sg223
g224
sg211
g212
sg213
g214
sg61
g62
sg11
g12
sg275
g276
ssS'17'
p337
(dp338
g223
g224
sg213
g214
sg155
g156
sg9
g10
sg193
g194
sg181
g182
sg107
g108
ssS'16'
p339
(dp340
g119
g120
sg185
g186
sg37
g38
sg67
g68
sg167
g168
sg177
g178
sg87
g88
ssS'19'
p341
(dp342
g223
g224
sg81
g82
sg187
g188
sg41
g42
sg107
g108
sg87
g88
sg111
g112
ssS'18'
p343
(dp344
g47
g48
sg257
g258
sg211
g212
sg223
g224
sg141
g142
sg103
g104
sg187
g188
ssS'48'
p345
(dp346
g139
g140
sg155
g156
sg143
g144
sg175
g176
sg163
g164
sg75
g76
sg147
g148
ssS'49'
p347
(dp348
g221
g222
sg37
g38
sg131
g132
sg103
g104
sg9
g10
sg105
g106
sg93
g94
ssS'46'
p349
(dp350
g139
g140
sg119
g120
sg37
g38
sg263
g264
sg61
g62
sg51
g52
sg115
g116
ssS'47'
p351
(dp352
g257
g258
sg87
g88
sg205
g206
sg133
g134
sg177
g178
sg163
g164
sg65
g66
ssS'44'
p353
(dp354
g139
g140
sg79
g80
sg121
g122
sg13
g14
sg175
g176
sg73
g74
sg195
g196
ssS'45'
p355
(dp356
g125
g126
sg223
g224
sg211
g212
sg61
g62
sg279
g280
sg173
g174
sg29
g30
ssS'42'
p357
(dp358
g139
g140
sg91
g92
sg263
g264
sg107
g108
sg177
g178
sg39
g40
sg201
g202
ssS'43'
p359
(dp360
g221
g222
sg199
g200
sg21
g22
sg187
g188
sg273
g274
sg85
g86
sg159
g160
ssS'40'
p361
(dp362
g139
g140
sg39
g40
sg61
g62
sg15
g16
sg113
g114
sg111
g112
sg115
g116
ssS'41'
p363
(dp364
g155
g156
sg59
g60
sg133
g134
sg279
g280
sg83
g84
sg299
g300
sg145
g146
ssS'1'
p365
(dp366
g47
g48
sg49
g50
sg35
g36
sg57
g58
sg155
g156
sg127
g128
sg221
g222
ssS'5'
p367
(dp368
g257
g258
sg79
g80
sg19
g20
sg135
g136
sg181
g182
sg93
g94
sg145
g146
ssS'9'
p369
(dp370
g213
g214
sg81
g82
sg175
g176
sg43
g44
sg159
g160
sg51
g52
sg113
g114
ssS'77'
p371
(dp372
g173
g174
sg141
g142
sg87
g88
sg81
g82
sg107
g108
sg51
g52
sg113
g114
ssS'76'
p373
(dp374
g119
g120
sg173
g174
sg81
g82
sg135
g136
sg177
g178
sg299
g300
sg159
g160
ssS'75'
p375
(dp376
g49
g50
sg41
g42
sg173
g174
sg7
g8
sg165
g166
sg133
g134
sg175
g176
ssS'74'
p377
(dp378
g119
g120
sg141
g142
sg105
g106
sg69
g70
sg41
g42
sg143
g144
sg127
g128
ssS'73'
p379
(dp380
g209
g210
sg257
g258
sg37
g38
sg61
g62
sg93
g94
sg159
g160
sg95
g96
ssS'72'
p381
(dp382
g185
g186
sg193
g194
sg269
g270
sg159
g160
sg299
g300
sg73
g74
sg111
g112
ssS'71'
p383
(dp384
g151
g152
sg35
g36
sg199
g200
sg5
g6
sg193
g194
sg135
g136
sg107
g108
ssS'70'
p385
(dp386
g47
g48
sg37
g38
sg103
g104
sg11
g12
sg191
g192
sg71
g72
sg299
g300
ssS'79'
p387
(dp388
g57
g58
sg75
g76
sg155
g156
sg39
g40
sg93
g94
sg43
g44
sg53
g54
ssS'78'
p389
(dp390
g185
g186
sg57
g58
sg67
g68
sg21
g22
sg3
g4
sg157
g158
sg15
g16
ss.