ccollections
defaultdict
p0
(g0
tp1
Rp2
S'26430636'
p3
g0
(tRp4
S'26861685'
p5
F0.12403473458920847
sS'26657126'
p6
F0.1414213562373095
sS'26748673'
p7
F0.18257418583505536
sS'26796664'
p8
F0.1690308509457033
sS'26698897'
p9
F0.14907119849998599
sS'27113517'
p10
F0.14907119849998599
sS'26992383'
p11
F0.14907119849998599
sS'26351864'
p12
F0.14907119849998599
sS'26580232'
p13
F0.1690308509457033
sS'26862058'
p14
F0.282842712474619
sS'26995475'
p15
F0.1414213562373095
sS'26863778'
p16
F0.1414213562373095
sS'27019527'
p17
F0.2
sS'25917973'
p18
F0.2
sS'27173314'
p19
F0.1690308509457033
sS'26331839'
p20
F0.14907119849998599
sS'25920326'
p21
F0.14907119849998599
sS'26762744'
p22
F0.1414213562373095
sS'26315270'
p23
F0.18257418583505536
sS'25912266'
p24
F0.22360679774997896
sS'24284175'
p25
F0.13483997249264842
sS'26897427'
p26
F0.1414213562373095
sS'26890502'
p27
F0.2
sS'26607969'
p28
F0.1690308509457033
sS'27086953'
p29
F0.1414213562373095
sS'27076492'
p30
F0.1690308509457033
sS'25858758'
p31
F0.15811388300841897
sS'26985857'
p32
F0.11547005383792514
sS'25790761'
p33
F0.1414213562373095
ssS'27073291'
p34
g0
(tRp35
S'26616690'
p36
F0.25
sS'26785793'
p37
F0.23570226039551587
sS'26647117'
p38
F0.21320071635561041
sg30
F0.2672612419124244
sS'26775933'
p39
F0.2672612419124244
sg19
F0.2672612419124244
sg13
F0.2672612419124244
sS'26966580'
p40
F0.4082482904638631
sS'26774722'
p41
F0.2672612419124244
sS'27089371'
p42
F0.23570226039551587
sS'26985857'
p43
F0.18257418583505536
sg15
F0.22360679774997896
ssg12
g0
(tRp44
g23
F0.13608276348795434
sg37
F0.2222222222222222
sg5
F0.09245003270420485
sg6
F0.31622776601683794
sg8
F0.1259881576697424
sg14
F0.21081851067789195
sS'26930375'
p45
F0.1259881576697424
sg15
F0.21081851067789195
sS'26602933'
p46
F0.13608276348795434
sS'20388198'
p47
F0.1259881576697424
sg16
F0.21081851067789195
sg17
F0.14907119849998599
sS'26935436'
p48
F0.2519763153394848
sg20
F0.1111111111111111
sS'26827040'
p49
F0.2519763153394848
sS'25966085'
p50
F0.09622504486493763
sS'26336253'
p51
F0.1111111111111111
sg21
F0.2222222222222222
sS'26760160'
p52
F0.16666666666666666
sS'26885074'
p53
F0.13608276348795434
sS'26581175'
p54
F0.13608276348795434
sg3
F0.14907119849998599
sS'10755361'
p55
F0.1111111111111111
sS'26266924'
p56
F0.23570226039551587
sg27
F0.14907119849998599
sg42
F0.2222222222222222
sS'26260853'
p57
F0.10540925533894598
sS'26586766'
p58
F0.1259881576697424
sg36
F0.11785113019775793
sS'26752106'
p59
F0.11785113019775793
sS'26348414'
p60
F0.11785113019775793
sS'26425068'
p61
F0.13608276348795434
sS'26729868'
p62
F0.14907119849998599
sg32
F0.08606629658238704
sg29
F0.10540925533894598
sS'26597901'
p63
F0.10050378152592121
sg30
F0.1259881576697424
sS'26818313'
p64
F0.2222222222222222
sS'26924141'
p65
F0.14907119849998599
sS'20452324'
p66
F0.13608276348795434
sS'26426194'
p67
F0.1259881576697424
sg33
F0.10540925533894598
ssg42
g0
(tRp68
g37
F0.2222222222222222
sg29
F0.10540925533894598
sg5
F0.09245003270420485
sg6
F0.10540925533894598
sg7
F0.13608276348795434
sS'26426099'
p69
F0.16666666666666666
sS'26796665'
p70
F0.2672612419124244
sg10
F0.1111111111111111
sg11
F0.1111111111111111
sg12
F0.2222222222222222
sS'25884801'
p71
F0.23570226039551587
sg14
F0.31622776601683794
sg15
F0.10540925533894598
sS'20505982'
p72
F0.13608276348795434
sg39
F0.1259881576697424
sg19
F0.1259881576697424
sS'26882457'
p73
F0.21081851067789195
sg41
F0.1259881576697424
sS'25986662'
p74
F0.20100756305184242
sS'26605946'
p75
F0.13608276348795434
sS'26352445'
p76
F0.1259881576697424
sg23
F0.2721655269759087
sg32
F0.17213259316477408
sg55
F0.1111111111111111
sg26
F0.21081851067789195
sS'26662193'
p77
F0.11785113019775793
sg56
F0.11785113019775793
sg27
F0.14907119849998599
sg50
F0.09622504486493763
sS'26756119'
p78
F0.13608276348795434
sg34
F0.23570226039551587
sg13
F0.1259881576697424
sg36
F0.23570226039551587
sS'27114417'
p79
F0.11785113019775793
sS'26811367'
p80
F0.13608276348795434
sg38
F0.10050378152592121
sS'26995719'
p81
F0.19245008972987526
sg30
F0.1259881576697424
sg64
F0.1111111111111111
sS'26316956'
p82
F0.10540925533894598
sS'26747274'
p83
F0.11785113019775793
sS'26309965'
p84
F0.11785113019775793
ssg15
g0
(tRp85
S'27056313'
p86
F0.18257418583505536
sg37
F0.10540925533894598
sg29
F0.1
sg5
F0.08770580193070293
sg6
F0.1
sg3
F0.1414213562373095
sg70
F0.1690308509457033
sg11
F0.10540925533894598
sg12
F0.21081851067789195
sg13
F0.11952286093343936
sg14
F0.1
sg47
F0.11952286093343936
sS'26826398'
p87
F0.11952286093343936
sg16
F0.1
sg17
F0.1414213562373095
sg18
F0.282842712474619
sg20
F0.10540925533894598
sg40
F0.18257418583505536
sg41
F0.23904572186687872
sg58
F0.11952286093343936
sg74
F0.09534625892455924
sg21
F0.21081851067789195
sS'26754233'
p88
F0.12909944487358055
sg53
F0.12909944487358055
sg73
F0.1
sS'24719063'
p89
F0.2581988897471611
sg32
F0.32659863237109044
sg56
F0.22360679774997896
sg42
F0.10540925533894598
sg28
F0.11952286093343936
sg34
F0.22360679774997896
sS'26612285'
p90
F0.11180339887498948
sg36
F0.11180339887498948
sg59
F0.11180339887498948
sg79
F0.22360679774997896
sg62
F0.1414213562373095
sg66
F0.12909944487358055
sS'26910087'
p91
F0.11180339887498948
sg38
F0.19069251784911848
sg63
F0.09534625892455924
sg30
F0.11952286093343936
sg8
F0.11952286093343936
sg64
F0.10540925533894598
sg31
F0.11180339887498948
sg83
F0.11180339887498948
sg84
F0.11180339887498948
sg33
F0.1
ssg87
g0
(tRp92
g86
F0.1091089451179962
sg5
F0.10482848367219183
sg6
F0.11952286093343936
sg7
F0.1543033499620919
sg70
F0.20203050891044214
sg11
F0.1259881576697424
sg38
F0.2279211529192759
sg15
F0.11952286093343936
sS'26698000'
p93
F0.14285714285714285
sg72
F0.1543033499620919
sg66
F0.1543033499620919
sg18
F0.1690308509457033
sg74
F0.2279211529192759
sg22
F0.11952286093343936
sg25
F0.2279211529192759
sS'26728669'
p94
F0.1543033499620919
sg56
F0.1336306209562122
sg78
F0.3086066999241838
sg82
F0.11952286093343936
sS'26365631'
p95
F0.2857142857142857
sS'27059130'
p96
F0.23904572186687872
sg62
F0.1690308509457033
sg80
F0.1543033499620919
sg29
F0.11952286093343936
sg63
F0.2279211529192759
sg30
F0.14285714285714285
sg64
F0.2519763153394848
sg31
F0.1336306209562122
sg83
F0.1336306209562122
sg32
F0.19518001458970666
sg67
F0.2857142857142857
ssg39
g0
(tRp97
g86
F0.2182178902359924
sg37
F0.1259881576697424
sg5
F0.20965696734438366
sg34
F0.2672612419124244
sg71
F0.2672612419124244
sg46
F0.3086066999241838
sg16
F0.23904572186687872
sg93
F0.2857142857142857
sg19
F0.2857142857142857
sg73
F0.11952286093343936
sg49
F0.14285714285714285
sg74
F0.2279211529192759
sg22
F0.11952286093343936
sg52
F0.1889822365046136
sg40
F0.2182178902359924
sg25
F0.2279211529192759
sg55
F0.1259881576697424
sg26
F0.11952286093343936
sg27
F0.1690308509457033
sg42
F0.1259881576697424
sg70
F0.10101525445522107
sg57
F0.11952286093343936
sg31
F0.1336306209562122
sg13
F0.14285714285714285
sg36
F0.1336306209562122
sg59
F0.1336306209562122
sg60
F0.1336306209562122
sg62
F0.1690308509457033
sg45
F0.14285714285714285
sg64
F0.1259881576697424
sg82
F0.11952286093343936
sg83
F0.1336306209562122
sg32
F0.09759000729485333
sg33
F0.11952286093343936
ssS'26654269'
p98
g0
(tRp99
g36
F0.17677669529663687
sg23
F0.20412414523193154
sg53
F0.20412414523193154
sg83
F0.17677669529663687
sg90
F0.17677669529663687
sg80
F0.20412414523193154
sg93
F0.1889822365046136
sg55
F0.16666666666666666
sg7
F0.4082482904638631
sg63
F0.30151134457776363
sg70
F0.2672612419124244
sg91
F0.17677669529663687
sg50
F0.14433756729740646
sg64
F0.16666666666666666
sg49
F0.1889822365046136
sg28
F0.1889822365046136
sg51
F0.16666666666666666
sS'26747869'
p100
F0.22360679774997896
sg74
F0.15075567228888181
sg31
F0.17677669529663687
sg22
F0.15811388300841897
ssg48
g0
(tRp101
g37
F0.2519763153394848
sg6
F0.11952286093343936
sg8
F0.14285714285714285
sg9
F0.1259881576697424
sg10
F0.1259881576697424
sg12
F0.2519763153394848
sg100
F0.1690308509457033
sg47
F0.2857142857142857
sg16
F0.11952286093343936
sg75
F0.1543033499620919
sg20
F0.1259881576697424
sg41
F0.14285714285714285
sg51
F0.1259881576697424
sg79
F0.1336306209562122
sg76
F0.14285714285714285
sg88
F0.1543033499620919
sg33
F0.23904572186687872
sg89
F0.1543033499620919
sg55
F0.2519763153394848
sg77
F0.1336306209562122
sS'26616894'
p102
F0.1690308509457033
sg57
F0.35856858280031806
sg54
F0.1543033499620919
sg90
F0.1336306209562122
sS'26984538'
p103
F0.2672612419124244
sg59
F0.1336306209562122
sg61
F0.1543033499620919
sg91
F0.1336306209562122
sg63
F0.11396057645963795
sg30
F0.14285714285714285
sg96
F0.23904572186687872
sg66
F0.1543033499620919
sg67
F0.14285714285714285
sg56
F0.1336306209562122
ssg18
g0
(tRp104
g86
F0.12909944487358055
sg3
F0.2
sg70
F0.23904572186687872
sg10
F0.29814239699997197
sg11
F0.14907119849998599
sg29
F0.282842712474619
sg14
F0.1414213562373095
sg15
F0.282842712474619
sg87
F0.1690308509457033
sg58
F0.1690308509457033
sg74
F0.13483997249264842
sg22
F0.282842712474619
sg55
F0.14907119849998599
sg79
F0.15811388300841897
sg8
F0.1690308509457033
sg28
F0.1690308509457033
sg82
F0.282842712474619
sg59
F0.15811388300841897
sg61
F0.18257418583505536
sg91
F0.15811388300841897
sg38
F0.13483997249264842
sg31
F0.15811388300841897
sg32
F0.23094010767585027
ssg20
g0
(tRp105
g86
F0.19245008972987526
sg37
F0.2222222222222222
sg5
F0.09245003270420485
sg6
F0.10540925533894598
sg3
F0.14907119849998599
sg70
F0.0890870806374748
sg10
F0.1111111111111111
sg12
F0.1111111111111111
sg13
F0.1259881576697424
sg15
F0.10540925533894598
sg47
F0.1259881576697424
sg16
F0.10540925533894598
sg72
F0.13608276348795434
sg48
F0.1259881576697424
sg75
F0.13608276348795434
sg19
F0.1259881576697424
sg73
F0.10540925533894598
sg50
F0.09622504486493763
sg51
F0.1111111111111111
sg74
F0.10050378152592121
sg76
F0.1259881576697424
sg88
F0.13608276348795434
sg53
F0.2721655269759087
sg96
F0.21081851067789195
sg89
F0.2721655269759087
sg23
F0.13608276348795434
sg102
F0.14907119849998599
sg41
F0.1259881576697424
sg78
F0.13608276348795434
sg56
F0.23570226039551587
sg9
F0.2222222222222222
sg90
F0.23570226039551587
sg79
F0.11785113019775793
sg91
F0.23570226039551587
sg29
F0.10540925533894598
sg100
F0.14907119849998599
sg30
F0.1259881576697424
sg8
F0.1259881576697424
sg82
F0.10540925533894598
sg83
F0.11785113019775793
sg84
F0.23570226039551587
sg67
F0.1259881576697424
sg33
F0.21081851067789195
ssg50
g0
(tRp106
g86
F0.08333333333333333
sg5
F0.16012815380508713
sg6
F0.18257418583505536
sg7
F0.23570226039551587
sg8
F0.1091089451179962
sg9
F0.19245008972987526
sg10
F0.19245008972987526
sg11
F0.09622504486493763
sg12
F0.09622504486493763
sg28
F0.1091089451179962
sg45
F0.2182178902359924
sg46
F0.23570226039551587
sg47
F0.1091089451179962
sg16
F0.18257418583505536
sg98
F0.14433756729740646
sg20
F0.09622504486493763
sg73
F0.09128709291752768
sg49
F0.1091089451179962
sg41
F0.1091089451179962
sg51
F0.09622504486493763
sg80
F0.11785113019775793
sg21
F0.09622504486493763
sg22
F0.27386127875258304
sg88
F0.23570226039551587
sg53
F0.11785113019775793
sg96
F0.18257418583505536
sg25
F0.17407765595569785
sg55
F0.09622504486493763
sg94
F0.11785113019775793
sg26
F0.09128709291752768
sg77
F0.20412414523193154
sg56
F0.10206207261596577
sg27
F0.12909944487358055
sg42
F0.09622504486493763
sg70
F0.07715167498104596
sg57
F0.18257418583505536
sg90
F0.20412414523193154
sg36
F0.10206207261596577
sg95
F0.1091089451179962
sg79
F0.10206207261596577
sg38
F0.17407765595569785
sg62
F0.12909944487358055
sg74
F0.08703882797784893
sS'26905469'
p107
F0.1091089451179962
sg29
F0.18257418583505536
sg63
F0.08703882797784893
sg30
F0.1091089451179962
sg64
F0.09622504486493763
sg82
F0.09128709291752768
sg83
F0.10206207261596577
sg32
F0.14907119849998599
sg67
F0.1091089451179962
sg33
F0.09128709291752768
ssg51
g0
(tRp108
g86
F0.09622504486493763
sg77
F0.11785113019775793
sg5
F0.1849000654084097
sg7
F0.13608276348795434
sg70
F0.2672612419124244
sg10
F0.1111111111111111
sg11
F0.1111111111111111
sg12
F0.1111111111111111
sg14
F0.10540925533894598
sg63
F0.10050378152592121
sg65
F0.29814239699997197
sg72
F0.13608276348795434
sg98
F0.16666666666666666
sg48
F0.1259881576697424
sg19
F0.1259881576697424
sg20
F0.1111111111111111
sg73
F0.10540925533894598
sg49
F0.1259881576697424
sg50
F0.09622504486493763
sg21
F0.1111111111111111
sg22
F0.10540925533894598
sg76
F0.2519763153394848
sg52
F0.16666666666666666
sg25
F0.20100756305184242
sg94
F0.13608276348795434
sS'26972258'
p109
F0.19245008972987526
sg61
F0.13608276348795434
sg78
F0.13608276348795434
sg9
F0.1111111111111111
sg57
F0.21081851067789195
sg90
F0.11785113019775793
sg59
F0.23570226039551587
sg60
F0.23570226039551587
sg79
F0.11785113019775793
sg66
F0.408248290463863
sg107
F0.1259881576697424
sg91
F0.11785113019775793
sg29
F0.10540925533894598
sg45
F0.1259881576697424
sg30
F0.1259881576697424
sg82
F0.10540925533894598
sg96
F0.10540925533894598
sg43
F0.08606629658238704
ssg74
g0
(tRp110
g86
F0.08703882797784893
sg37
F0.10050378152592121
sg5
F0.08362420100070908
sg6
F0.09534625892455924
sg7
F0.12309149097933272
sg70
F0.24174688920761409
sg11
F0.20100756305184242
sg71
F0.21320071635561041
sg42
F0.20100756305184242
sg15
F0.09534625892455924
sg87
F0.2279211529192759
sg75
F0.24618298195866545
sg98
F0.15075567228888181
sg17
F0.13483997249264842
sg39
F0.2279211529192759
sg18
F0.13483997249264842
sg20
F0.10050378152592121
sg73
F0.19069251784911848
sg49
F0.11396057645963795
sg50
F0.08703882797784893
sg80
F0.12309149097933272
sg21
F0.10050378152592121
sg76
F0.11396057645963795
sg52
F0.15075567228888181
sg53
F0.12309149097933272
sg25
F0.18181818181818182
sg23
F0.12309149097933272
sg94
F0.12309149097933272
sg109
F0.17407765595569785
sg26
F0.28603877677367767
sg79
F0.10660035817780521
sg27
F0.13483997249264842
sg41
F0.11396057645963795
sg78
F0.12309149097933272
sg28
F0.11396057645963795
sg57
F0.09534625892455924
sg82
F0.19069251784911848
sg90
F0.10660035817780521
sg36
F0.21320071635561041
sg59
F0.10660035817780521
sg95
F0.11396057645963795
sg77
F0.10660035817780521
sg62
F0.13483997249264842
sg84
F0.10660035817780521
sg107
F0.11396057645963795
sg91
F0.10660035817780521
sg38
F0.09090909090909091
sg63
F0.09090909090909091
sg81
F0.17407765595569785
sg64
F0.10050378152592121
sg31
F0.10660035817780521
sg96
F0.09534625892455924
sg43
F0.0778498944161523
ssg76
g0
(tRp111
g86
F0.1091089451179962
sg78
F0.3086066999241838
sg69
F0.1889822365046136
sg70
F0.10101525445522107
sg10
F0.2519763153394848
sg13
F0.14285714285714285
sg14
F0.35856858280031806
sg47
F0.14285714285714285
sg65
F0.3380617018914066
sg72
F0.4629100498862757
sg17
F0.1690308509457033
sg48
F0.14285714285714285
sg75
F0.1543033499620919
sg19
F0.14285714285714285
sg20
F0.1259881576697424
sg73
F0.11952286093343936
sg49
F0.2857142857142857
sg51
F0.2519763153394848
sg74
F0.11396057645963795
sg21
F0.1259881576697424
sg89
F0.1543033499620919
sg25
F0.11396057645963795
sg102
F0.1690308509457033
sg42
F0.1259881576697424
sg9
F0.1259881576697424
sg58
F0.14285714285714285
sg90
F0.2672612419124244
sg95
F0.14285714285714285
sg91
F0.1336306209562122
sg63
F0.11396057645963795
sg31
F0.1336306209562122
sg66
F0.1543033499620919
ssg73
g0
(tRp112
g86
F0.09128709291752768
sg37
F0.10540925533894598
sg5
F0.17541160386140586
sg8
F0.11952286093343936
sg70
F0.1690308509457033
sg11
F0.10540925533894598
sg13
F0.11952286093343936
sg14
F0.2
sg15
F0.1
sg46
F0.12909944487358055
sg47
F0.11952286093343936
sg65
F0.1414213562373095
sg72
F0.2581988897471611
sg17
F0.1414213562373095
sg39
F0.11952286093343936
sg19
F0.11952286093343936
sg20
F0.10540925533894598
sg49
F0.11952286093343936
sg41
F0.11952286093343936
sg51
F0.10540925533894598
sg74
F0.19069251784911848
sg76
F0.11952286093343936
sg52
F0.15811388300841897
sg89
F0.12909944487358055
sg25
F0.28603877677367767
sg23
F0.12909944487358055
sg94
F0.2581988897471611
sg26
F0.1
sg79
F0.11180339887498948
sg56
F0.22360679774997896
sg50
F0.09128709291752768
sg42
F0.21081851067789195
sg28
F0.11952286093343936
sg9
F0.21081851067789195
sg31
F0.11180339887498948
sg103
F0.22360679774997896
sg59
F0.22360679774997896
sg77
F0.22360679774997896
sg80
F0.12909944487358055
sg91
F0.11180339887498948
sg38
F0.09534625892455924
sg45
F0.11952286093343936
sg30
F0.11952286093343936
sg82
F0.1
sg96
F0.2
sg84
F0.11180339887498948
ssg89
g0
(tRp113
g86
F0.11785113019775793
sg37
F0.13608276348795434
sg69
F0.20412414523193154
sg70
F0.1091089451179962
sg10
F0.13608276348795434
sg11
F0.13608276348795434
sg13
F0.3086066999241838
sg14
F0.12909944487358055
sg15
F0.2581988897471611
sg65
F0.18257418583505536
sg48
F0.1543033499620919
sg20
F0.2721655269759087
sg73
F0.12909944487358055
sg41
F0.1543033499620919
sg58
F0.1543033499620919
sg76
F0.1543033499620919
sg88
F0.3333333333333333
sg56
F0.14433756729740646
sg28
F0.1543033499620919
sg9
F0.13608276348795434
sg57
F0.12909944487358055
sg59
F0.14433756729740646
sg79
F0.14433756729740646
sg91
F0.14433756729740646
sg29
F0.2581988897471611
sg100
F0.18257418583505536
sg82
F0.12909944487358055
sg83
F0.14433756729740646
sg84
F0.14433756729740646
sg67
F0.1543033499620919
sg33
F0.12909944487358055
ssg55
g0
(tRp114
g52
F0.16666666666666666
sg29
F0.21081851067789195
sg69
F0.16666666666666666
sg9
F0.2222222222222222
sg10
F0.1111111111111111
sg12
F0.1111111111111111
sg71
F0.23570226039551587
sg14
F0.10540925533894598
sg63
F0.20100756305184242
sg47
F0.1259881576697424
sg16
F0.31622776601683794
sg93
F0.3779644730092272
sg98
F0.16666666666666666
sg48
F0.2519763153394848
sg39
F0.1259881576697424
sg18
F0.14907119849998599
sg19
F0.1259881576697424
sg41
F0.1259881576697424
sg58
F0.1259881576697424
sg21
F0.1111111111111111
sg22
F0.10540925533894598
sg88
F0.13608276348795434
sg53
F0.13608276348795434
sg26
F0.10540925533894598
sg56
F0.23570226039551587
sg50
F0.09622504486493763
sg42
F0.1111111111111111
sg28
F0.1259881576697424
sg57
F0.21081851067789195
sg31
F0.11785113019775793
sg103
F0.23570226039551587
sg59
F0.23570226039551587
sg83
F0.23570226039551587
sg62
F0.14907119849998599
sg91
F0.11785113019775793
sg38
F0.10050378152592121
sg100
F0.14907119849998599
sg82
F0.21081851067789195
sg96
F0.10540925533894598
sg32
F0.08606629658238704
sg33
F0.10540925533894598
ssg60
g0
(tRp115
g86
F0.20412414523193154
sg5
F0.19611613513818404
sg6
F0.11180339887498948
sg9
F0.11785113019775793
sg11
F0.23570226039551587
sg12
F0.11785113019775793
sg45
F0.1336306209562122
sg46
F0.2886751345948129
sg65
F0.31622776601683794
sg93
F0.1336306209562122
sg17
F0.15811388300841897
sg39
F0.1336306209562122
sg49
F0.1336306209562122
sg58
F0.1336306209562122
sg21
F0.11785113019775793
sg23
F0.14433756729740646
sg24
F0.17677669529663687
sg54
F0.43301270189221935
sg25
F0.10660035817780521
sg94
F0.14433756729740646
sg109
F0.4082482904638631
sg26
F0.22360679774997896
sg57
F0.11180339887498948
sg51
F0.23570226039551587
sg95
F0.1336306209562122
sg61
F0.14433756729740646
sg84
F0.125
sg107
F0.2672612419124244
sg91
F0.125
sg29
F0.22360679774997896
sg100
F0.15811388300841897
sg64
F0.11785113019775793
sg16
F0.11180339887498948
sg82
F0.11180339887498948
sg83
F0.125
sg43
F0.09128709291752768
ssg26
g0
(tRp116
g23
F0.2581988897471611
sg5
F0.08770580193070293
sg6
F0.2
sg7
F0.12909944487358055
sg69
F0.15811388300841897
sg70
F0.08451542547285165
sg14
F0.1
sg42
F0.21081851067789195
sg63
F0.09534625892455924
sg46
F0.12909944487358055
sg16
F0.2
sg75
F0.12909944487358055
sg17
F0.1414213562373095
sg39
F0.11952286093343936
sg73
F0.1
sg41
F0.11952286093343936
sg74
F0.28603877677367767
sg21
F0.21081851067789195
sg22
F0.2
sg52
F0.15811388300841897
sg24
F0.31622776601683794
sg25
F0.19069251784911848
sg55
F0.10540925533894598
sg94
F0.12909944487358055
sg109
F0.18257418583505536
sg77
F0.22360679774997896
sg3
F0.1414213562373095
sg27
F0.1414213562373095
sg50
F0.09128709291752768
sg28
F0.11952286093343936
sg57
F0.2
sg54
F0.12909944487358055
sg36
F0.11180339887498948
sg59
F0.11180339887498948
sg60
F0.22360679774997896
sg79
F0.11180339887498948
sg32
F0.08164965809277261
sg107
F0.23904572186687872
sg29
F0.1
sg100
F0.1414213562373095
sg30
F0.11952286093343936
sg64
F0.21081851067789195
sg84
F0.11180339887498948
sg33
F0.2
ssg36
g0
(tRp117
g37
F0.23570226039551587
sg5
F0.19611613513818404
sg6
F0.11180339887498948
sg7
F0.14433756729740646
sg8
F0.2672612419124244
sg34
F0.25
sg12
F0.11785113019775793
sg13
F0.1336306209562122
sg14
F0.11180339887498948
sg42
F0.23570226039551587
sg15
F0.11180339887498948
sg47
F0.1336306209562122
sg16
F0.11180339887498948
sg93
F0.1336306209562122
sg75
F0.2886751345948129
sg98
F0.17677669529663687
sg39
F0.1336306209562122
sg19
F0.2672612419124244
sg50
F0.10206207261596577
sg74
F0.21320071635561041
sg23
F0.14433756729740646
sg24
F0.35355339059327373
sg26
F0.11180339887498948
sg69
F0.17677669529663687
sg28
F0.1336306209562122
sg54
F0.14433756729740646
sg90
F0.125
sg59
F0.125
sg77
F0.25
sg80
F0.2886751345948129
sg107
F0.1336306209562122
sg38
F0.10660035817780521
sg63
F0.10660035817780521
sS'26857654'
p118
F0.25
sg83
F0.125
sg32
F0.18257418583505536
sg56
F0.125
ssg61
g0
(tRp119
g37
F0.408248290463863
sg5
F0.11322770341445956
sg6
F0.12909944487358055
sg102
F0.18257418583505536
sg10
F0.2721655269759087
sg12
F0.13608276348795434
sg58
F0.1543033499620919
sg16
F0.12909944487358055
sg48
F0.1543033499620919
sg75
F0.16666666666666666
sg18
F0.18257418583505536
sg51
F0.13608276348795434
sg21
F0.13608276348795434
sg22
F0.12909944487358055
sg31
F0.2886751345948129
sg94
F0.16666666666666666
sg109
F0.23570226039551587
sg27
F0.3651483716701107
sg78
F0.16666666666666666
sg57
F0.3872983346207417
sg54
F0.16666666666666666
sg60
F0.14433756729740646
sg107
F0.3086066999241838
sg63
F0.12309149097933272
sg82
F0.12909944487358055
sg32
F0.21081851067789195
sg67
F0.1543033499620919
ssg62
g0
(tRp120
g37
F0.14907119849998599
sg7
F0.18257418583505536
sg102
F0.2
sg70
F0.11952286093343936
sg10
F0.14907119849998599
sg11
F0.14907119849998599
sg12
F0.14907119849998599
sg71
F0.31622776601683794
sg15
F0.1414213562373095
sg47
F0.1690308509457033
sg87
F0.1690308509457033
sg16
F0.1414213562373095
sg93
F0.1690308509457033
sg17
F0.2
sg39
F0.1690308509457033
sg19
F0.1690308509457033
sg50
F0.12909944487358055
sg74
F0.13483997249264842
sg21
F0.14907119849998599
sg53
F0.18257418583505536
sg55
F0.14907119849998599
sg94
F0.18257418583505536
sg28
F0.1690308509457033
sg95
F0.1690308509457033
sg77
F0.15811388300841897
sg38
F0.13483997249264842
sg63
F0.13483997249264842
sg81
F0.2581988897471611
sg82
F0.1414213562373095
sg43
F0.11547005383792514
ssg45
g0
(tRp121
g86
F0.2182178902359924
sg5
F0.10482848367219183
sg9
F0.1259881576697424
sg12
F0.1259881576697424
sg13
F0.14285714285714285
sg14
F0.11952286093343936
sg46
F0.3086066999241838
sg39
F0.14285714285714285
sg19
F0.14285714285714285
sg73
F0.11952286093343936
sg49
F0.14285714285714285
sg50
F0.2182178902359924
sg51
F0.1259881576697424
sg21
F0.3779644730092272
sg22
F0.23904572186687872
sg53
F0.1543033499620919
sg96
F0.11952286093343936
sg25
F0.11396057645963795
sg95
F0.2857142857142857
sg70
F0.10101525445522107
sg90
F0.2672612419124244
sg103
F0.2672612419124244
sg59
F0.1336306209562122
sg60
F0.1336306209562122
sg79
F0.2672612419124244
sg91
F0.1336306209562122
sg38
F0.11396057645963795
sg81
F0.2182178902359924
sg64
F0.1259881576697424
sg83
F0.1336306209562122
sg84
F0.1336306209562122
sg33
F0.23904572186687872
ssg118
g0
(tRp122
g36
F0.25
sg43
F0.18257418583505536
sg5
F0.19611613513818404
sg107
F0.2672612419124244
sg66
F0.2886751345948129
sg102
F0.31622776601683794
sg100
F0.31622776601683794
sg19
F0.2672612419124244
sg8
F0.2672612419124244
sg58
F0.2672612419124244
sg84
F0.25
sg69
F0.35355339059327373
ssg96
g0
(tRp123
g86
F0.18257418583505536
sg5
F0.17541160386140586
sg6
F0.2
sg9
F0.31622776601683794
sg11
F0.21081851067789195
sg29
F0.1
sg14
F0.1
sg46
F0.12909944487358055
sg47
F0.11952286093343936
sg87
F0.23904572186687872
sg93
F0.11952286093343936
sg17
F0.1414213562373095
sg48
F0.23904572186687872
sg19
F0.11952286093343936
sg20
F0.21081851067789195
sg73
F0.2
sg41
F0.23904572186687872
sg51
F0.10540925533894598
sg74
F0.09534625892455924
sg53
F0.12909944487358055
sg25
F0.38138503569823695
sg55
F0.10540925533894598
sg109
F0.18257418583505536
sg56
F0.11180339887498948
sg50
F0.18257418583505536
sg28
F0.11952286093343936
sg57
F0.2
sg90
F0.22360679774997896
sg103
F0.4472135954999579
sg59
F0.11180339887498948
sg95
F0.11952286093343936
sg77
F0.11180339887498948
sg84
F0.11180339887498948
sg38
F0.09534625892455924
sg45
F0.11952286093343936
sg30
F0.23904572186687872
sg64
F0.21081851067789195
sg82
F0.2
sg66
F0.12909944487358055
ssg84
g0
(tRp124
g86
F0.10206207261596577
sg37
F0.23570226039551587
sg78
F0.14433756729740646
sg6
F0.11180339887498948
sg102
F0.15811388300841897
sg70
F0.0944911182523068
sg11
F0.11785113019775793
sg29
F0.11180339887498948
sg14
F0.11180339887498948
sg100
F0.15811388300841897
sg15
F0.11180339887498948
sg65
F0.15811388300841897
sg20
F0.23570226039551587
sg73
F0.11180339887498948
sg58
F0.1336306209562122
sg74
F0.10660035817780521
sg22
F0.11180339887498948
sg52
F0.17677669529663687
sg53
F0.14433756729740646
sg89
F0.14433756729740646
sg32
F0.09128709291752768
sg60
F0.125
sg26
F0.11180339887498948
sg42
F0.11785113019775793
sg54
F0.14433756729740646
sg90
F0.25
sg95
F0.1336306209562122
sg79
F0.25
sg80
F0.14433756729740646
sg107
F0.4008918628686366
sg91
F0.375
sg38
F0.21320071635561041
sg45
F0.1336306209562122
sg83
F0.125
sg64
F0.11785113019775793
sg118
F0.25
sg96
F0.11180339887498948
sg66
F0.14433756729740646
sg33
F0.11180339887498948
ssg23
g0
(tRp125
g86
F0.11785113019775793
sg5
F0.22645540682891913
sg6
F0.12909944487358055
sg7
F0.16666666666666666
sg8
F0.1543033499620919
sg70
F0.2182178902359924
sg12
F0.13608276348795434
sg42
F0.2721655269759087
sg16
F0.12909944487358055
sg93
F0.1543033499620919
sg98
F0.20412414523193154
sg17
F0.18257418583505536
sg75
F0.16666666666666666
sg20
F0.13608276348795434
sg73
F0.12909944487358055
sg49
F0.1543033499620919
sg41
F0.1543033499620919
sg74
F0.12309149097933272
sg24
F0.20412414523193154
sg95
F0.1543033499620919
sg26
F0.2581988897471611
sg77
F0.14433756729740646
sg3
F0.18257418583505536
sg28
F0.1543033499620919
sg9
F0.13608276348795434
sg36
F0.14433756729740646
sg60
F0.14433756729740646
sg79
F0.14433756729740646
sg80
F0.16666666666666666
sg64
F0.13608276348795434
sg31
F0.14433756729740646
sg83
F0.14433756729740646
ssg69
g0
(tRp126
g5
F0.1386750490563073
sg8
F0.1889822365046136
sg9
F0.16666666666666666
sg10
F0.3333333333333333
sg14
F0.15811388300841897
sg42
F0.16666666666666666
sg72
F0.20412414523193154
sg19
F0.1889822365046136
sg21
F0.16666666666666666
sg22
F0.15811388300841897
sg76
F0.1889822365046136
sg88
F0.20412414523193154
sg89
F0.20412414523193154
sg55
F0.16666666666666666
sg26
F0.15811388300841897
sg78
F0.20412414523193154
sg36
F0.17677669529663687
sg59
F0.17677669529663687
sg118
F0.35355339059327373
sg82
F0.15811388300841897
sg43
F0.12909944487358055
sg67
F0.1889822365046136
sg33
F0.15811388300841897
ssg13
g0
(tRp127
g86
F0.3273268353539886
sg37
F0.1259881576697424
sg6
F0.11952286093343936
sg7
F0.1543033499620919
sg3
F0.1690308509457033
sg9
F0.1259881576697424
sg70
F0.20203050891044214
sg14
F0.11952286093343936
sg15
F0.11952286093343936
sg65
F0.1690308509457033
sg39
F0.14285714285714285
sg19
F0.2857142857142857
sg20
F0.1259881576697424
sg73
F0.11952286093343936
sg41
F0.14285714285714285
sg58
F0.2857142857142857
sg21
F0.1259881576697424
sg76
F0.14285714285714285
sg53
F0.1543033499620919
sg89
F0.3086066999241838
sg56
F0.1336306209562122
sg27
F0.1690308509457033
sg42
F0.1259881576697424
sg28
F0.14285714285714285
sg34
F0.2672612419124244
sg57
F0.11952286093343936
sg90
F0.1336306209562122
sg36
F0.1336306209562122
sg59
F0.1336306209562122
sg95
F0.14285714285714285
sg29
F0.11952286093343936
sg45
F0.14285714285714285
sg81
F0.2182178902359924
sg30
F0.14285714285714285
sg64
F0.1259881576697424
sg31
F0.1336306209562122
ssg63
g0
(tRp128
g37
F0.10050378152592121
sg32
F0.1556997888323046
sg6
F0.09534625892455924
sg7
F0.24618298195866545
sg102
F0.13483997249264842
sg70
F0.08058229640253803
sg12
F0.10050378152592121
sg78
F0.12309149097933272
sg15
F0.09534625892455924
sg47
F0.3418817293789138
sg87
F0.2279211529192759
sg16
F0.38138503569823695
sg93
F0.2279211529192759
sg72
F0.12309149097933272
sg98
F0.30151134457776363
sg48
F0.11396057645963795
sg49
F0.11396057645963795
sg41
F0.11396057645963795
sg51
F0.10050378152592121
sg80
F0.12309149097933272
sg21
F0.10050378152592121
sg22
F0.19069251784911848
sg76
F0.11396057645963795
sg88
F0.12309149097933272
sg53
F0.12309149097933272
sg25
F0.09090909090909091
sg55
F0.20100756305184242
sg94
F0.12309149097933272
sg26
F0.09534625892455924
sg8
F0.11396057645963795
sg27
F0.13483997249264842
sg50
F0.08703882797784893
sg28
F0.11396057645963795
sg57
F0.19069251784911848
sg36
F0.10660035817780521
sg59
F0.10660035817780521
sg95
F0.11396057645963795
sg61
F0.12309149097933272
sg62
F0.13483997249264842
sg74
F0.09090909090909091
sg91
F0.10660035817780521
sg29
F0.09534625892455924
sg100
F0.13483997249264842
sg81
F0.17407765595569785
sg82
F0.09534625892455924
sg83
F0.21320071635561041
sg66
F0.24618298195866545
sg67
F0.2279211529192759
sg56
F0.21320071635561041
ssg65
g0
(tRp129
g86
F0.12909944487358055
sg70
F0.11952286093343936
sg11
F0.14907119849998599
sg12
F0.14907119849998599
sg13
F0.1690308509457033
sg14
F0.282842712474619
sg19
F0.1690308509457033
sg73
F0.1414213562373095
sg49
F0.1690308509457033
sg58
F0.3380617018914066
sg76
F0.3380617018914066
sg51
F0.29814239699997197
sg89
F0.18257418583505536
sg25
F0.13483997249264842
sg94
F0.18257418583505536
sg78
F0.18257418583505536
sg54
F0.3651483716701107
sg60
F0.31622776601683794
sg77
F0.15811388300841897
sg66
F0.18257418583505536
sg107
F0.1690308509457033
sg91
F0.15811388300841897
sg29
F0.1414213562373095
sg84
F0.15811388300841897
ssg72
g0
(tRp130
g5
F0.11322770341445956
sg7
F0.16666666666666666
sg69
F0.20412414523193154
sg9
F0.2721655269759087
sg10
F0.2721655269759087
sg11
F0.13608276348795434
sg14
F0.2581988897471611
sg42
F0.13608276348795434
sg63
F0.12309149097933272
sg47
F0.1543033499620919
sg87
F0.1543033499620919
sg17
F0.18257418583505536
sg20
F0.13608276348795434
sg73
F0.2581988897471611
sg49
F0.1543033499620919
sg51
F0.13608276348795434
sg76
F0.4629100498862757
sg94
F0.16666666666666666
sg8
F0.1543033499620919
sg78
F0.3333333333333333
sg70
F0.1091089451179962
sg90
F0.14433756729740646
sg79
F0.14433756729740646
sg100
F0.18257418583505536
sg30
F0.1543033499620919
sg31
F0.14433756729740646
sg83
F0.14433756729740646
sg67
F0.1543033499620919
sg33
F0.12909944487358055
ssg17
g0
(tRp131
g86
F0.12909944487358055
sg37
F0.14907119849998599
sg6
F0.1414213562373095
sg3
F0.2
sg9
F0.14907119849998599
sg11
F0.14907119849998599
sg12
F0.14907119849998599
sg14
F0.282842712474619
sg15
F0.1414213562373095
sg93
F0.1690308509457033
sg72
F0.18257418583505536
sg73
F0.1414213562373095
sg49
F0.1690308509457033
sg74
F0.13483997249264842
sg21
F0.14907119849998599
sg76
F0.1690308509457033
sg23
F0.18257418583505536
sg24
F0.22360679774997896
sg53
F0.18257418583505536
sg25
F0.13483997249264842
sg95
F0.1690308509457033
sg109
F0.2581988897471611
sg26
F0.1414213562373095
sg31
F0.15811388300841897
sg60
F0.15811388300841897
sg62
F0.2
sg30
F0.1690308509457033
sg82
F0.1414213562373095
sg96
F0.1414213562373095
ssg19
g0
(tRp132
g37
F0.1259881576697424
sg5
F0.10482848367219183
sg7
F0.1543033499620919
sg3
F0.1690308509457033
sg70
F0.10101525445522107
sg71
F0.2672612419124244
sg42
F0.1259881576697424
sg34
F0.2672612419124244
sg65
F0.1690308509457033
sg93
F0.14285714285714285
sg39
F0.2857142857142857
sg75
F0.1543033499620919
sg20
F0.1259881576697424
sg73
F0.11952286093343936
sg51
F0.1259881576697424
sg69
F0.1889822365046136
sg76
F0.14285714285714285
sg25
F0.11396057645963795
sg55
F0.1259881576697424
sg102
F0.1690308509457033
sg27
F0.1690308509457033
sg78
F0.1543033499620919
sg9
F0.2519763153394848
sg13
F0.2857142857142857
sg103
F0.2672612419124244
sg36
F0.2672612419124244
sg62
F0.1690308509457033
sg66
F0.1543033499620919
sg91
F0.1336306209562122
sg45
F0.14285714285714285
sg8
F0.14285714285714285
sg16
F0.11952286093343936
sg118
F0.2672612419124244
sg31
F0.1336306209562122
sg96
F0.11952286093343936
sg43
F0.09759000729485333
sg67
F0.14285714285714285
sg33
F0.11952286093343936
ssg52
g0
(tRp133
g5
F0.2773500981126146
sg6
F0.15811388300841897
sg12
F0.16666666666666666
sg93
F0.1889822365046136
sg39
F0.1889822365046136
sg73
F0.15811388300841897
sg49
F0.1889822365046136
sg58
F0.1889822365046136
sg74
F0.15075567228888181
sg88
F0.20412414523193154
sg84
F0.17677669529663687
sg51
F0.16666666666666666
sg55
F0.16666666666666666
sg26
F0.15811388300841897
sg57
F0.15811388300841897
sg82
F0.15811388300841897
sg59
F0.35355339059327373
sg66
F0.20412414523193154
sg107
F0.1889822365046136
sg31
F0.17677669529663687
sg32
F0.12909944487358055
sg33
F0.15811388300841897
ssg53
g0
(tRp134
g86
F0.11785113019775793
sg37
F0.2721655269759087
sg5
F0.22645540682891913
sg8
F0.1543033499620919
sg12
F0.13608276348795434
sg13
F0.1543033499620919
sg100
F0.18257418583505536
sg45
F0.1543033499620919
sg15
F0.12909944487358055
sg93
F0.1543033499620919
sg98
F0.20412414523193154
sg17
F0.18257418583505536
sg20
F0.2721655269759087
sg50
F0.11785113019775793
sg74
F0.12309149097933272
sg21
F0.2721655269759087
sg88
F0.16666666666666666
sg55
F0.13608276348795434
sg94
F0.16666666666666666
sg56
F0.14433756729740646
sg78
F0.16666666666666666
sg90
F0.14433756729740646
sg59
F0.14433756729740646
sg95
F0.1543033499620919
sg83
F0.14433756729740646
sg62
F0.18257418583505536
sg107
F0.1543033499620919
sg91
F0.14433756729740646
sg63
F0.12309149097933272
sg81
F0.23570226039551587
sg96
F0.12909944487358055
sg84
F0.14433756729740646
ssg78
g0
(tRp135
g37
F0.2721655269759087
sg7
F0.16666666666666666
sg69
F0.20412414523193154
sg70
F0.1091089451179962
sg10
F0.13608276348795434
sg14
F0.12909944487358055
sg87
F0.3086066999241838
sg65
F0.18257418583505536
sg72
F0.3333333333333333
sg19
F0.1543033499620919
sg20
F0.13608276348795434
sg51
F0.13608276348795434
sg74
F0.12309149097933272
sg22
F0.12909944487358055
sg76
F0.3086066999241838
sg53
F0.16666666666666666
sg102
F0.18257418583505536
sg27
F0.18257418583505536
sg42
F0.13608276348795434
sg82
F0.12909944487358055
sg95
F0.1543033499620919
sg61
F0.16666666666666666
sg84
F0.14433756729740646
sg107
F0.1543033499620919
sg91
F0.14433756729740646
sg38
F0.12309149097933272
sg63
F0.12309149097933272
sg64
F0.13608276348795434
sg31
F0.14433756729740646
sg83
F0.14433756729740646
sg66
F0.16666666666666666
sg67
F0.1543033499620919
ssg59
g0
(tRp136
g5
F0.19611613513818404
sg6
F0.11180339887498948
sg69
F0.17677669529663687
sg11
F0.11785113019775793
sg12
F0.11785113019775793
sg13
F0.1336306209562122
sg45
F0.1336306209562122
sg15
F0.11180339887498948
sg16
F0.11180339887498948
sg93
F0.1336306209562122
sg48
F0.1336306209562122
sg39
F0.1336306209562122
sg18
F0.15811388300841897
sg73
F0.22360679774997896
sg49
F0.1336306209562122
sg51
F0.23570226039551587
sg74
F0.10660035817780521
sg21
F0.23570226039551587
sg22
F0.11180339887498948
sg52
F0.35355339059327373
sg53
F0.14433756729740646
sg89
F0.14433756729740646
sg55
F0.23570226039551587
sg26
F0.11180339887498948
sg56
F0.125
sg28
F0.1336306209562122
sg57
F0.11180339887498948
sg36
F0.125
sg95
F0.1336306209562122
sg91
F0.25
sg29
F0.11180339887498948
sg63
F0.10660035817780521
sg81
F0.20412414523193154
sg30
F0.1336306209562122
sg8
F0.1336306209562122
sg82
F0.22360679774997896
sg96
F0.11180339887498948
sg66
F0.2886751345948129
sg33
F0.11180339887498948
ssg77
g0
(tRp137
g86
F0.10206207261596577
sg37
F0.11785113019775793
sg5
F0.09805806756909202
sg7
F0.2886751345948129
sg8
F0.1336306209562122
sg70
F0.0944911182523068
sg10
F0.23570226039551587
sg11
F0.11785113019775793
sg14
F0.11180339887498948
sg46
F0.14433756729740646
sg47
F0.1336306209562122
sg65
F0.15811388300841897
sg48
F0.1336306209562122
sg75
F0.14433756729740646
sg40
F0.20412414523193154
sg50
F0.20412414523193154
sg51
F0.11785113019775793
sg80
F0.14433756729740646
sg23
F0.14433756729740646
sg24
F0.17677669529663687
sg73
F0.22360679774997896
sg25
F0.21320071635561041
sg94
F0.14433756729740646
sg26
F0.22360679774997896
sg56
F0.125
sg42
F0.11785113019775793
sg28
F0.2672612419124244
sg54
F0.2886751345948129
sg36
F0.25
sg95
F0.1336306209562122
sg79
F0.125
sg62
F0.15811388300841897
sg74
F0.10660035817780521
sg107
F0.1336306209562122
sg38
F0.21320071635561041
sg96
F0.11180339887498948
sg67
F0.1336306209562122
sg33
F0.11180339887498948
ssg82
g0
(tRp138
g88
F0.12909944487358055
sg5
F0.08770580193070293
sg6
F0.1
sg69
F0.15811388300841897
sg9
F0.21081851067789195
sg10
F0.21081851067789195
sg11
F0.21081851067789195
sg29
F0.3
sg28
F0.23904572186687872
sg47
F0.23904572186687872
sg87
F0.11952286093343936
sg17
F0.1414213562373095
sg39
F0.11952286093343936
sg18
F0.282842712474619
sg20
F0.10540925533894598
sg73
F0.1
sg50
F0.09128709291752768
sg51
F0.10540925533894598
sg74
F0.19069251784911848
sg22
F0.2
sg52
F0.15811388300841897
sg96
F0.2
sg89
F0.12909944487358055
sg25
F0.09534625892455924
sg55
F0.21081851067789195
sg95
F0.11952286093343936
sg109
F0.18257418583505536
sg14
F0.1
sg102
F0.1414213562373095
sg41
F0.11952286093343936
sg42
F0.10540925533894598
sg58
F0.11952286093343936
sg59
F0.22360679774997896
sg60
F0.11180339887498948
sg61
F0.12909944487358055
sg62
F0.1414213562373095
sg91
F0.11180339887498948
sg38
F0.09534625892455924
sg63
F0.09534625892455924
sg81
F0.18257418583505536
sg64
F0.10540925533894598
sg78
F0.12909944487358055
sg83
F0.11180339887498948
sg32
F0.24494897427831783
sg67
F0.11952286093343936
ssg6
g0
(tRp139
g86
F0.09128709291752768
sg37
F0.10540925533894598
sg5
F0.08770580193070293
sg3
F0.1414213562373095
sg11
F0.21081851067789195
sg12
F0.31622776601683794
sg13
F0.11952286093343936
sg63
F0.09534625892455924
sg15
F0.1
sg87
F0.11952286093343936
sg16
F0.2
sg93
F0.11952286093343936
sg17
F0.1414213562373095
sg48
F0.11952286093343936
sg20
F0.10540925533894598
sg50
F0.18257418583505536
sg58
F0.11952286093343936
sg74
F0.09534625892455924
sg52
F0.15811388300841897
sg96
F0.2
sg25
F0.19069251784911848
sg23
F0.12909944487358055
sg94
F0.12909944487358055
sg109
F0.18257418583505536
sg26
F0.2
sg8
F0.23904572186687872
sg27
F0.1414213562373095
sg42
F0.10540925533894598
sg57
F0.2
sg54
F0.12909944487358055
sg90
F0.11180339887498948
sg36
F0.11180339887498948
sg59
F0.11180339887498948
sg60
F0.11180339887498948
sg61
F0.12909944487358055
sg32
F0.16329931618554522
sg107
F0.11952286093343936
sg29
F0.2
sg100
F0.1414213562373095
sg30
F0.11952286093343936
sg64
F0.31622776601683794
sg82
F0.1
sg83
F0.11180339887498948
sg84
F0.11180339887498948
sg67
F0.11952286093343936
sg33
F0.1
ssg8
g0
(tRp140
g88
F0.1543033499620919
sg5
F0.3144854510165755
sg6
F0.23904572186687872
sg3
F0.1690308509457033
sg70
F0.10101525445522107
sg10
F0.1259881576697424
sg12
F0.1259881576697424
sg15
F0.11952286093343936
sg47
F0.14285714285714285
sg16
F0.23904572186687872
sg93
F0.14285714285714285
sg72
F0.1543033499620919
sg48
F0.14285714285714285
sg18
F0.1690308509457033
sg19
F0.14285714285714285
sg20
F0.1259881576697424
sg73
F0.11952286093343936
sg50
F0.1091089451179962
sg23
F0.1543033499620919
sg53
F0.1543033499620919
sg94
F0.3086066999241838
sg79
F0.2672612419124244
sg69
F0.1889822365046136
sg9
F0.1259881576697424
sg54
F0.1543033499620919
sg36
F0.2672612419124244
sg59
F0.1336306209562122
sg77
F0.1336306209562122
sg107
F0.14285714285714285
sg38
F0.11396057645963795
sg63
F0.11396057645963795
sg118
F0.2672612419124244
sg32
F0.19518001458970666
sg33
F0.11952286093343936
ssg70
g0
(tRp141
g86
F0.3086066999241838
sg37
F0.0890870806374748
sg5
F0.07412493166611012
sg7
F0.2182178902359924
sg8
F0.10101525445522107
sg11
F0.1781741612749496
sg29
F0.08451542547285165
sg13
F0.20203050891044214
sg28
F0.20203050891044214
sg45
F0.10101525445522107
sg15
F0.1690308509457033
sg46
F0.1091089451179962
sg100
F0.11952286093343936
sg71
F0.1889822365046136
sg87
F0.20203050891044214
sg65
F0.11952286093343936
sg72
F0.1091089451179962
sg98
F0.2672612419124244
sg66
F0.1091089451179962
sg75
F0.1091089451179962
sg18
F0.23904572186687872
sg19
F0.10101525445522107
sg20
F0.0890870806374748
sg73
F0.1690308509457033
sg49
F0.10101525445522107
sg41
F0.10101525445522107
sg51
F0.2672612419124244
sg80
F0.1091089451179962
sg21
F0.0890870806374748
sg22
F0.1690308509457033
sg76
F0.10101525445522107
sg23
F0.2182178902359924
sg89
F0.1091089451179962
sg43
F0.20701966780270628
sg94
F0.1091089451179962
sg26
F0.08451542547285165
sg77
F0.0944911182523068
sg56
F0.0944911182523068
sg50
F0.07715167498104596
sg42
F0.2672612419124244
sg57
F0.08451542547285165
sg39
F0.10101525445522107
sg79
F0.2834733547569204
sg62
F0.11952286093343936
sg74
F0.24174688920761409
sg91
F0.0944911182523068
sg38
F0.24174688920761409
sg63
F0.08058229640253803
sg81
F0.1543033499620919
sg30
F0.20203050891044214
sg64
F0.0890870806374748
sg78
F0.1091089451179962
sg31
F0.2834733547569204
sg84
F0.0944911182523068
sg33
F0.08451542547285165
ssg11
g0
(tRp142
g5
F0.09245003270420485
sg6
F0.21081851067789195
sg7
F0.13608276348795434
sg3
F0.14907119849998599
sg70
F0.1781741612749496
sg10
F0.2222222222222222
sg71
F0.23570226039551587
sg14
F0.10540925533894598
sg15
F0.10540925533894598
sg87
F0.1259881576697424
sg65
F0.14907119849998599
sg72
F0.13608276348795434
sg17
F0.14907119849998599
sg75
F0.13608276348795434
sg18
F0.14907119849998599
sg73
F0.10540925533894598
sg50
F0.09622504486493763
sg51
F0.1111111111111111
sg74
F0.20100756305184242
sg22
F0.10540925533894598
sg89
F0.13608276348795434
sg25
F0.20100756305184242
sg60
F0.23570226039551587
sg109
F0.19245008972987526
sg79
F0.11785113019775793
sg56
F0.11785113019775793
sg42
F0.1111111111111111
sg54
F0.13608276348795434
sg59
F0.11785113019775793
sg95
F0.1259881576697424
sg77
F0.11785113019775793
sg62
F0.14907119849998599
sg84
F0.11785113019775793
sg107
F0.1259881576697424
sg91
F0.23570226039551587
sg29
F0.31622776601683794
sg100
F0.14907119849998599
sg81
F0.19245008972987526
sg30
F0.1259881576697424
sg82
F0.21081851067789195
sg96
F0.21081851067789195
sg43
F0.08606629658238704
sg33
F0.10540925533894598
ssg14
g0
(tRp143
g86
F0.18257418583505536
sg29
F0.2
sg3
F0.282842712474619
sg10
F0.21081851067789195
sg11
F0.10540925533894598
sg12
F0.21081851067789195
sg13
F0.11952286093343936
sg78
F0.12909944487358055
sg15
F0.1
sg46
F0.12909944487358055
sg65
F0.282842712474619
sg69
F0.15811388300841897
sg72
F0.2581988897471611
sg17
F0.282842712474619
sg18
F0.1414213562373095
sg73
F0.2
sg49
F0.11952286093343936
sg51
F0.10540925533894598
sg21
F0.10540925533894598
sg22
F0.1
sg76
F0.35856858280031806
sg24
F0.15811388300841897
sg96
F0.1
sg89
F0.12909944487358055
sg25
F0.19069251784911848
sg55
F0.10540925533894598
sg31
F0.11180339887498948
sg94
F0.12909944487358055
sg26
F0.1
sg56
F0.11180339887498948
sg42
F0.31622776601683794
sg58
F0.11952286093343936
sg90
F0.11180339887498948
sg36
F0.11180339887498948
sg77
F0.11180339887498948
sg32
F0.16329931618554522
sg38
F0.09534625892455924
sg45
F0.11952286093343936
sg30
F0.11952286093343936
sg64
F0.21081851067789195
sg82
F0.1
sg83
F0.11180339887498948
sg84
F0.11180339887498948
sg33
F0.1
ssg16
g0
(tRp144
g88
F0.12909944487358055
sg6
F0.2
sg3
F0.1414213562373095
sg9
F0.10540925533894598
sg10
F0.21081851067789195
sg12
F0.21081851067789195
sg71
F0.22360679774997896
sg15
F0.1
sg46
F0.12909944487358055
sg47
F0.23904572186687872
sg93
F0.35856858280031806
sg39
F0.23904572186687872
sg48
F0.11952286093343936
sg75
F0.12909944487358055
sg19
F0.11952286093343936
sg20
F0.10540925533894598
sg40
F0.18257418583505536
sg49
F0.11952286093343936
sg41
F0.11952286093343936
sg21
F0.21081851067789195
sg22
F0.1
sg23
F0.12909944487358055
sg24
F0.15811388300841897
sg25
F0.09534625892455924
sg55
F0.31622776601683794
sg109
F0.18257418583505536
sg26
F0.2
sg8
F0.23904572186687872
sg50
F0.18257418583505536
sg56
F0.22360679774997896
sg57
F0.1
sg54
F0.12909944487358055
sg36
F0.11180339887498948
sg59
F0.11180339887498948
sg60
F0.11180339887498948
sg61
F0.12909944487358055
sg62
F0.1414213562373095
sg38
F0.09534625892455924
sg29
F0.1
sg63
F0.38138503569823695
sg31
F0.11180339887498948
sg66
F0.12909944487358055
sg33
F0.1
ssg93
g0
(tRp145
g86
F0.1091089451179962
sg6
F0.11952286093343936
sg52
F0.1889822365046136
sg8
F0.14285714285714285
sg9
F0.1259881576697424
sg71
F0.2672612419124244
sg100
F0.1690308509457033
sg87
F0.14285714285714285
sg16
F0.35856858280031806
sg98
F0.1889822365046136
sg17
F0.1690308509457033
sg39
F0.2857142857142857
sg19
F0.14285714285714285
sg40
F0.2182178902359924
sg25
F0.2279211529192759
sg58
F0.14285714285714285
sg88
F0.1543033499620919
sg53
F0.1543033499620919
sg55
F0.3779644730092272
sg49
F0.14285714285714285
sg23
F0.1543033499620919
sg95
F0.2857142857142857
sg57
F0.11952286093343936
sg36
F0.1336306209562122
sg59
F0.1336306209562122
sg60
F0.1336306209562122
sg83
F0.1336306209562122
sg62
F0.1690308509457033
sg63
F0.2279211529192759
sg30
F0.14285714285714285
sg64
F0.1259881576697424
sg31
F0.1336306209562122
sg96
F0.11952286093343936
sg33
F0.11952286093343936
ssg58
g0
(tRp146
g86
F0.3273268353539886
sg6
F0.11952286093343936
sg52
F0.1889822365046136
sg102
F0.1690308509457033
sg10
F0.1259881576697424
sg38
F0.11396057645963795
sg13
F0.2857142857142857
sg14
F0.11952286093343936
sg15
F0.11952286093343936
sg65
F0.3380617018914066
sg93
F0.14285714285714285
sg66
F0.1543033499620919
sg18
F0.1690308509457033
sg49
F0.14285714285714285
sg41
F0.14285714285714285
sg80
F0.1543033499620919
sg22
F0.11952286093343936
sg76
F0.14285714285714285
sg88
F0.1543033499620919
sg89
F0.1543033499620919
sg55
F0.1259881576697424
sg31
F0.1336306209562122
sg79
F0.1336306209562122
sg57
F0.11952286093343936
sg54
F0.1543033499620919
sg90
F0.1336306209562122
sg60
F0.1336306209562122
sg61
F0.1543033499620919
sg84
F0.1336306209562122
sg107
F0.14285714285714285
sg29
F0.11952286093343936
sg100
F0.1690308509457033
sg64
F0.1259881576697424
sg118
F0.2672612419124244
sg82
F0.11952286093343936
sg83
F0.1336306209562122
sg43
F0.09759000729485333
sg12
F0.1259881576697424
ssg88
g0
(tRp147
g37
F0.13608276348795434
sg5
F0.22645540682891913
sg69
F0.20412414523193154
sg9
F0.13608276348795434
sg10
F0.13608276348795434
sg100
F0.18257418583505536
sg15
F0.12909944487358055
sg46
F0.16666666666666666
sg47
F0.1543033499620919
sg16
F0.12909944487358055
sg93
F0.1543033499620919
sg48
F0.1543033499620919
sg20
F0.13608276348795434
sg50
F0.23570226039551587
sg58
F0.1543033499620919
sg22
F0.12909944487358055
sg52
F0.20412414523193154
sg53
F0.16666666666666666
sg89
F0.3333333333333333
sg55
F0.13608276348795434
sg94
F0.16666666666666666
sg8
F0.1543033499620919
sg41
F0.1543033499620919
sg57
F0.12909944487358055
sg31
F0.14433756729740646
sg32
F0.10540925533894598
sg107
F0.1543033499620919
sg63
F0.12309149097933272
sg82
F0.12909944487358055
sg66
F0.16666666666666666
sg67
F0.3086066999241838
sg33
F0.12909944487358055
ssg24
g0
(tRp148
g37
F0.16666666666666666
sg5
F0.1386750490563073
sg3
F0.22360679774997896
sg14
F0.15811388300841897
sg46
F0.20412414523193154
sg47
F0.1889822365046136
sg16
F0.15811388300841897
sg17
F0.22360679774997896
sg75
F0.20412414523193154
sg80
F0.20412414523193154
sg21
F0.16666666666666666
sg23
F0.20412414523193154
sg25
F0.15075567228888181
sg109
F0.2886751345948129
sg26
F0.31622776601683794
sg54
F0.20412414523193154
sg36
F0.35355339059327373
sg60
F0.17677669529663687
sg77
F0.17677669529663687
sg38
F0.15075567228888181
sg30
F0.1889822365046136
sg83
F0.17677669529663687
ssg109
g0
(tRp149
g24
F0.2886751345948129
sg60
F0.4082482904638631
sg61
F0.23570226039551587
sg74
F0.17407765595569785
sg6
F0.18257418583505536
sg16
F0.18257418583505536
sg5
F0.16012815380508713
sg107
F0.2182178902359924
sg17
F0.2581988897471611
sg21
F0.19245008972987526
sg26
F0.18257418583505536
sg11
F0.19245008972987526
sg51
F0.19245008972987526
sg96
F0.18257418583505536
sg57
F0.18257418583505536
sg82
F0.18257418583505536
sg46
F0.23570226039551587
ssg56
g0
(tRp150
g86
F0.3061862178478973
sg5
F0.09805806756909202
sg70
F0.0944911182523068
sg10
F0.11785113019775793
sg11
F0.11785113019775793
sg12
F0.23570226039551587
sg13
F0.1336306209562122
sg14
F0.11180339887498948
sg15
F0.22360679774997896
sg47
F0.1336306209562122
sg87
F0.1336306209562122
sg16
F0.22360679774997896
sg48
F0.1336306209562122
sg20
F0.23570226039551587
sg73
F0.22360679774997896
sg50
F0.10206207261596577
sg80
F0.2886751345948129
sg53
F0.14433756729740646
sg40
F0.20412414523193154
sg89
F0.14433756729740646
sg55
F0.23570226039551587
sg42
F0.11785113019775793
sg9
F0.11785113019775793
sg90
F0.125
sg36
F0.125
sg59
F0.125
sg77
F0.125
sg66
F0.14433756729740646
sg91
F0.125
sg38
F0.21320071635561041
sg63
F0.21320071635561041
sg30
F0.1336306209562122
sg96
F0.11180339887498948
sg32
F0.18257418583505536
sg67
F0.2672612419124244
ssg27
g0
(tRp151
g37
F0.29814239699997197
sg6
F0.1414213562373095
sg7
F0.18257418583505536
sg3
F0.2
sg9
F0.14907119849998599
sg12
F0.14907119849998599
sg13
F0.1690308509457033
sg42
F0.14907119849998599
sg39
F0.1690308509457033
sg19
F0.1690308509457033
sg50
F0.12909944487358055
sg74
F0.13483997249264842
sg25
F0.13483997249264842
sg94
F0.18257418583505536
sg26
F0.1414213562373095
sg102
F0.2
sg78
F0.18257418583505536
sg57
F0.282842712474619
sg61
F0.3651483716701107
sg107
F0.1690308509457033
sg63
F0.13483997249264842
sg30
F0.1690308509457033
sg64
F0.29814239699997197
sg31
F0.31622776601683794
sg32
F0.11547005383792514
ssg54
g0
(tRp152
g37
F0.13608276348795434
sg29
F0.12909944487358055
sg6
F0.12909944487358055
sg8
F0.1543033499620919
sg10
F0.2721655269759087
sg11
F0.13608276348795434
sg12
F0.13608276348795434
sg47
F0.1543033499620919
sg65
F0.3651483716701107
sg48
F0.1543033499620919
sg75
F0.16666666666666666
sg49
F0.1543033499620919
sg58
F0.1543033499620919
sg79
F0.14433756729740646
sg21
F0.13608276348795434
sg24
F0.20412414523193154
sg94
F0.16666666666666666
sg26
F0.12909944487358055
sg77
F0.2886751345948129
sg36
F0.14433756729740646
sg60
F0.43301270189221935
sg61
F0.16666666666666666
sg107
F0.1543033499620919
sg91
F0.14433756729740646
sg38
F0.12309149097933272
sg100
F0.18257418583505536
sg64
F0.13608276348795434
sg16
F0.12909944487358055
sg31
F0.14433756729740646
sg84
F0.14433756729740646
sg33
F0.12909944487358055
ssg103
g0
(tRp153
g96
F0.4472135954999579
sg25
F0.21320071635561041
sg55
F0.23570226039551587
sg9
F0.47140452079103173
sg48
F0.2672612419124244
sg19
F0.2672612419124244
sg73
F0.22360679774997896
sg41
F0.2672612419124244
sg45
F0.2672612419124244
sg57
F0.22360679774997896
ssg95
g0
(tRp154
g86
F0.1091089451179962
sg7
F0.1543033499620919
sg9
F0.1259881576697424
sg10
F0.1259881576697424
sg11
F0.1259881576697424
sg13
F0.14285714285714285
sg63
F0.11396057645963795
sg87
F0.2857142857142857
sg93
F0.2857142857142857
sg17
F0.1690308509457033
sg49
F0.14285714285714285
sg50
F0.1091089451179962
sg74
F0.11396057645963795
sg21
F0.2519763153394848
sg22
F0.23904572186687872
sg76
F0.14285714285714285
sg23
F0.1543033499620919
sg53
F0.1543033499620919
sg25
F0.2279211529192759
sg79
F0.1336306209562122
sg78
F0.1543033499620919
sg90
F0.1336306209562122
sg59
F0.1336306209562122
sg60
F0.1336306209562122
sg77
F0.1336306209562122
sg62
F0.1690308509457033
sg91
F0.1336306209562122
sg38
F0.11396057645963795
sg45
F0.2857142857142857
sg81
F0.2182178902359924
sg30
F0.14285714285714285
sg64
F0.2519763153394848
sg82
F0.11952286093343936
sg96
F0.11952286093343936
sg84
F0.1336306209562122
ssg79
g0
(tRp155
g86
F0.20412414523193154
sg8
F0.2672612419124244
sg70
F0.2834733547569204
sg10
F0.11785113019775793
sg11
F0.11785113019775793
sg38
F0.21320071635561041
sg100
F0.15811388300841897
sg15
F0.22360679774997896
sg72
F0.14433756729740646
sg54
F0.14433756729740646
sg48
F0.1336306209562122
sg18
F0.15811388300841897
sg20
F0.11785113019775793
sg73
F0.11180339887498948
sg41
F0.2672612419124244
sg51
F0.11785113019775793
sg80
F0.14433756729740646
sg21
F0.11785113019775793
sg22
F0.11180339887498948
sg23
F0.14433756729740646
sg84
F0.25
sg89
F0.14433756729740646
sg26
F0.11180339887498948
sg50
F0.10206207261596577
sg42
F0.11785113019775793
sg58
F0.1336306209562122
sg90
F0.125
sg95
F0.1336306209562122
sg77
F0.125
sg74
F0.10660035817780521
sg91
F0.125
sg29
F0.11180339887498948
sg45
F0.2672612419124244
sg30
F0.1336306209562122
sg83
F0.25
sg32
F0.09128709291752768
sg33
F0.22360679774997896
ssg107
g0
(tRp156
g88
F0.1543033499620919
sg37
F0.1259881576697424
sg5
F0.20965696734438366
sg6
F0.11952286093343936
sg102
F0.3380617018914066
sg11
F0.1259881576697424
sg28
F0.14285714285714285
sg65
F0.1690308509457033
sg54
F0.1543033499620919
sg75
F0.1543033499620919
sg50
F0.1091089451179962
sg58
F0.14285714285714285
sg74
F0.11396057645963795
sg52
F0.1889822365046136
sg53
F0.1543033499620919
sg32
F0.09759000729485333
sg94
F0.1543033499620919
sg109
F0.2182178902359924
sg26
F0.23904572186687872
sg77
F0.1336306209562122
sg8
F0.14285714285714285
sg27
F0.1690308509457033
sg78
F0.1543033499620919
sg57
F0.11952286093343936
sg51
F0.1259881576697424
sg36
F0.1336306209562122
sg60
F0.2672612419124244
sg61
F0.3086066999241838
sg66
F0.1543033499620919
sg91
F0.1336306209562122
sg100
F0.1690308509457033
sg118
F0.2672612419124244
sg31
F0.1336306209562122
sg84
F0.4008918628686366
sg33
F0.11952286093343936
ssg38
g0
(tRp157
g86
F0.26111648393354675
sg37
F0.20100756305184242
sg78
F0.12309149097933272
sg8
F0.11396057645963795
sg70
F0.24174688920761409
sg10
F0.10050378152592121
sg9
F0.10050378152592121
sg14
F0.09534625892455924
sg83
F0.10660035817780521
sg15
F0.19069251784911848
sg47
F0.11396057645963795
sg87
F0.2279211529192759
sg16
F0.09534625892455924
sg18
F0.13483997249264842
sg40
F0.3481553119113957
sg49
F0.11396057645963795
sg50
F0.17407765595569785
sg58
F0.11396057645963795
sg80
F0.3692744729379982
sg22
F0.19069251784911848
sg24
F0.15075567228888181
sg73
F0.09534625892455924
sg43
F0.23354968324845687
sg55
F0.10050378152592121
sg94
F0.12309149097933272
sg79
F0.21320071635561041
sg56
F0.21320071635561041
sg41
F0.2279211529192759
sg42
F0.10050378152592121
sg34
F0.21320071635561041
sg54
F0.12309149097933272
sg90
F0.21320071635561041
sg36
F0.10660035817780521
sg95
F0.11396057645963795
sg77
F0.21320071635561041
sg62
F0.13483997249264842
sg74
F0.09090909090909091
sg45
F0.11396057645963795
sg30
F0.11396057645963795
sg64
F0.20100756305184242
sg82
F0.09534625892455924
sg96
F0.09534625892455924
sg84
F0.21320071635561041
sg67
F0.11396057645963795
sg33
F0.09534625892455924
ssg30
g0
(tRp158
g86
F0.1091089451179962
sg6
F0.11952286093343936
sg3
F0.1690308509457033
sg70
F0.20203050891044214
sg11
F0.1259881576697424
sg12
F0.1259881576697424
sg13
F0.14285714285714285
sg14
F0.11952286093343936
sg15
F0.11952286093343936
sg87
F0.14285714285714285
sg93
F0.14285714285714285
sg72
F0.1543033499620919
sg17
F0.1690308509457033
sg48
F0.14285714285714285
sg20
F0.1259881576697424
sg73
F0.11952286093343936
sg50
F0.1091089451179962
sg51
F0.1259881576697424
sg24
F0.1889822365046136
sg40
F0.2182178902359924
sg25
F0.2279211529192759
sg26
F0.11952286093343936
sg56
F0.1336306209562122
sg27
F0.1690308509457033
sg41
F0.14285714285714285
sg42
F0.1259881576697424
sg34
F0.2672612419124244
sg57
F0.11952286093343936
sg59
F0.1336306209562122
sg95
F0.14285714285714285
sg79
F0.1336306209562122
sg66
F0.1543033499620919
sg38
F0.11396057645963795
sg100
F0.1690308509457033
sg64
F0.2519763153394848
sg96
F0.23904572186687872
sg43
F0.09759000729485333
sg33
F0.11952286093343936
ssg31
g0
(tRp159
g86
F0.20412414523193154
sg37
F0.11785113019775793
sg52
F0.17677669529663687
sg7
F0.14433756729740646
sg3
F0.15811388300841897
sg9
F0.11785113019775793
sg10
F0.11785113019775793
sg13
F0.1336306209562122
sg14
F0.11180339887498948
sg15
F0.11180339887498948
sg46
F0.14433756729740646
sg87
F0.1336306209562122
sg16
F0.11180339887498948
sg93
F0.1336306209562122
sg72
F0.14433756729740646
sg98
F0.17677669529663687
sg17
F0.15811388300841897
sg75
F0.14433756729740646
sg18
F0.15811388300841897
sg19
F0.1336306209562122
sg73
F0.11180339887498948
sg49
F0.2672612419124244
sg58
F0.1336306209562122
sg74
F0.10660035817780521
sg21
F0.11785113019775793
sg22
F0.11180339887498948
sg76
F0.1336306209562122
sg88
F0.14433756729740646
sg55
F0.11785113019775793
sg23
F0.14433756729740646
sg102
F0.15811388300841897
sg27
F0.31622776601683794
sg78
F0.14433756729740646
sg28
F0.1336306209562122
sg70
F0.2834733547569204
sg57
F0.11180339887498948
sg54
F0.14433756729740646
sg39
F0.1336306209562122
sg61
F0.2886751345948129
sg107
F0.1336306209562122
sg64
F0.11785113019775793
sg32
F0.09128709291752768
ssg83
g0
(tRp160
g86
F0.20412414523193154
sg5
F0.19611613513818404
sg6
F0.11180339887498948
sg7
F0.14433756729740646
sg38
F0.10660035817780521
sg14
F0.11180339887498948
sg45
F0.1336306209562122
sg15
F0.11180339887498948
sg46
F0.14433756729740646
sg100
F0.15811388300841897
sg87
F0.1336306209562122
sg93
F0.1336306209562122
sg72
F0.14433756729740646
sg98
F0.17677669529663687
sg75
F0.14433756729740646
sg20
F0.11785113019775793
sg41
F0.1336306209562122
sg58
F0.1336306209562122
sg80
F0.2886751345948129
sg23
F0.14433756729740646
sg24
F0.17677669529663687
sg53
F0.14433756729740646
sg89
F0.14433756729740646
sg25
F0.10660035817780521
sg55
F0.23570226039551587
sg50
F0.10206207261596577
sg42
F0.11785113019775793
sg57
F0.11180339887498948
sg39
F0.1336306209562122
sg36
F0.125
sg60
F0.125
sg79
F0.25
sg84
F0.125
sg29
F0.33541019662496846
sg63
F0.21320071635561041
sg78
F0.14433756729740646
sg82
F0.11180339887498948
sg32
F0.18257418583505536
sg67
F0.1336306209562122
ssg32
g0
(tRp161
g88
F0.10540925533894598
sg86
F0.07453559924999299
sg37
F0.08606629658238704
sg5
F0.21483446221182986
sg6
F0.16329931618554522
sg3
F0.11547005383792514
sg70
F0.20701966780270628
sg10
F0.08606629658238704
sg11
F0.08606629658238704
sg12
F0.08606629658238704
sg14
F0.16329931618554522
sg15
F0.32659863237109044
sg46
F0.21081851067789195
sg38
F0.23354968324845687
sg87
F0.19518001458970666
sg39
F0.09759000729485333
sg18
F0.23094010767585027
sg19
F0.09759000729485333
sg40
F0.14907119849998599
sg50
F0.14907119849998599
sg58
F0.09759000729485333
sg80
F0.10540925533894598
sg21
F0.08606629658238704
sg22
F0.24494897427831783
sg52
F0.12909944487358055
sg84
F0.09128709291752768
sg33
F0.16329931618554522
sg25
F0.1556997888323046
sg55
F0.08606629658238704
sg31
F0.09128709291752768
sg94
F0.21081851067789195
sg26
F0.08164965809277261
sg61
F0.21081851067789195
sg69
F0.12909944487358055
sg27
F0.11547005383792514
sg41
F0.09759000729485333
sg42
F0.17213259316477408
sg28
F0.09759000729485333
sg34
F0.18257418583505536
sg57
F0.16329931618554522
sg51
F0.08606629658238704
sg36
F0.18257418583505536
sg60
F0.09128709291752768
sg79
F0.09128709291752768
sg62
F0.11547005383792514
sg74
F0.0778498944161523
sg107
F0.09759000729485333
sg29
F0.24494897427831783
sg63
F0.1556997888323046
sg30
F0.09759000729485333
sg8
F0.19518001458970666
sg118
F0.18257418583505536
sg82
F0.24494897427831783
sg83
F0.18257418583505536
sg66
F0.10540925533894598
sg67
F0.19518001458970666
sg56
F0.18257418583505536
ssg33
g0
(tRp162
g88
F0.12909944487358055
sg37
F0.10540925533894598
sg5
F0.08770580193070293
sg6
F0.1
sg8
F0.11952286093343936
sg70
F0.08451542547285165
sg10
F0.10540925533894598
sg11
F0.10540925533894598
sg12
F0.10540925533894598
sg14
F0.1
sg100
F0.282842712474619
sg15
F0.1
sg46
F0.12909944487358055
sg16
F0.1
sg93
F0.11952286093343936
sg72
F0.12909944487358055
sg48
F0.23904572186687872
sg75
F0.12909944487358055
sg19
F0.11952286093343936
sg20
F0.21081851067789195
sg40
F0.18257418583505536
sg49
F0.23904572186687872
sg50
F0.09128709291752768
sg21
F0.31622776601683794
sg22
F0.2
sg52
F0.15811388300841897
sg89
F0.12909944487358055
sg25
F0.09534625892455924
sg3
F0.1414213562373095
sg55
F0.10540925533894598
sg26
F0.2
sg79
F0.22360679774997896
sg69
F0.15811388300841897
sg102
F0.1414213562373095
sg28
F0.11952286093343936
sg54
F0.12909944487358055
sg90
F0.11180339887498948
sg39
F0.11952286093343936
sg59
F0.11180339887498948
sg77
F0.11180339887498948
sg32
F0.16329931618554522
sg107
F0.11952286093343936
sg91
F0.11180339887498948
sg38
F0.09534625892455924
sg45
F0.23904572186687872
sg30
F0.11952286093343936
sg64
F0.10540925533894598
sg84
F0.11180339887498948
sg67
F0.11952286093343936
ssg86
g0
(tRp163
g5
F0.16012815380508713
sg6
F0.09128709291752768
sg70
F0.3086066999241838
sg13
F0.3273268353539886
sg14
F0.18257418583505536
sg15
F0.18257418583505536
sg46
F0.23570226039551587
sg87
F0.1091089451179962
sg65
F0.12909944487358055
sg93
F0.1091089451179962
sg17
F0.12909944487358055
sg39
F0.2182178902359924
sg18
F0.12909944487358055
sg20
F0.19245008972987526
sg73
F0.09128709291752768
sg41
F0.1091089451179962
sg58
F0.3273268353539886
sg80
F0.23570226039551587
sg21
F0.09622504486493763
sg22
F0.09128709291752768
sg76
F0.1091089451179962
sg23
F0.11785113019775793
sg84
F0.10206207261596577
sg53
F0.11785113019775793
sg96
F0.18257418583505536
sg40
F0.16666666666666666
sg89
F0.11785113019775793
sg95
F0.1091089451179962
sg79
F0.20412414523193154
sg56
F0.3061862178478973
sg50
F0.08333333333333333
sg9
F0.09622504486493763
sg51
F0.09622504486493763
sg90
F0.3061862178478973
sg60
F0.20412414523193154
sg77
F0.10206207261596577
sg74
F0.08703882797784893
sg38
F0.26111648393354675
sg45
F0.2182178902359924
sg30
F0.1091089451179962
sg64
F0.19245008972987526
sg31
F0.20412414523193154
sg83
F0.20412414523193154
sg32
F0.07453559924999299
sg67
F0.1091089451179962
ssg37
g0
(tRp164
g6
F0.10540925533894598
sg102
F0.14907119849998599
sg34
F0.23570226039551587
sg12
F0.2222222222222222
sg13
F0.1259881576697424
sg42
F0.2222222222222222
sg100
F0.14907119849998599
sg15
F0.10540925533894598
sg47
F0.1259881576697424
sg17
F0.14907119849998599
sg48
F0.2519763153394848
sg39
F0.1259881576697424
sg19
F0.1259881576697424
sg20
F0.2222222222222222
sg73
F0.10540925533894598
sg74
F0.10050378152592121
sg21
F0.1111111111111111
sg88
F0.13608276348795434
sg24
F0.16666666666666666
sg53
F0.2721655269759087
sg89
F0.13608276348795434
sg32
F0.08606629658238704
sg94
F0.13608276348795434
sg61
F0.408248290463863
sg27
F0.29814239699997197
sg78
F0.2721655269759087
sg70
F0.0890870806374748
sg57
F0.21081851067789195
sg54
F0.13608276348795434
sg36
F0.23570226039551587
sg77
F0.11785113019775793
sg62
F0.14907119849998599
sg80
F0.13608276348795434
sg107
F0.1259881576697424
sg91
F0.11785113019775793
sg38
F0.20100756305184242
sg63
F0.10050378152592121
sg31
F0.11785113019775793
sg84
F0.23570226039551587
sg67
F0.1259881576697424
sg33
F0.10540925533894598
ssg5
g0
(tRp165
g86
F0.16012815380508713
sg32
F0.21483446221182986
sg6
F0.08770580193070293
sg52
F0.2773500981126146
sg7
F0.11322770341445956
sg8
F0.3144854510165755
sg70
F0.07412493166611012
sg11
F0.09245003270420485
sg12
F0.09245003270420485
sg42
F0.09245003270420485
sg83
F0.19611613513818404
sg15
F0.08770580193070293
sg46
F0.22645540682891913
sg47
F0.10482848367219183
sg87
F0.10482848367219183
sg72
F0.11322770341445956
sg75
F0.11322770341445956
sg19
F0.10482848367219183
sg20
F0.09245003270420485
sg73
F0.17541160386140586
sg49
F0.10482848367219183
sg50
F0.16012815380508713
sg51
F0.1849000654084097
sg80
F0.11322770341445956
sg21
F0.09245003270420485
sg22
F0.08770580193070293
sg88
F0.22645540682891913
sg24
F0.1386750490563073
sg53
F0.22645540682891913
sg33
F0.08770580193070293
sg25
F0.08362420100070908
sg3
F0.12403473458920847
sg23
F0.22645540682891913
sg94
F0.22645540682891913
sg109
F0.16012815380508713
sg26
F0.08770580193070293
sg77
F0.09805806756909202
sg69
F0.1386750490563073
sg28
F0.10482848367219183
sg9
F0.09245003270420485
sg57
F0.08770580193070293
sg90
F0.09805806756909202
sg39
F0.20965696734438366
sg36
F0.19611613513818404
sg59
F0.19611613513818404
sg60
F0.19611613513818404
sg61
F0.11322770341445956
sg74
F0.08362420100070908
sg107
F0.20965696734438366
sg29
F0.08770580193070293
sg45
F0.10482848367219183
sg118
F0.19611613513818404
sg82
F0.08770580193070293
sg96
F0.17541160386140586
sg66
F0.11322770341445956
sg67
F0.10482848367219183
sg56
F0.09805806756909202
ssg7
g0
(tRp166
g5
F0.11322770341445956
sg3
F0.18257418583505536
sg9
F0.13608276348795434
sg10
F0.13608276348795434
sg11
F0.13608276348795434
sg13
F0.1543033499620919
sg78
F0.16666666666666666
sg87
F0.1543033499620919
sg72
F0.16666666666666666
sg98
F0.4082482904638631
sg19
F0.1543033499620919
sg50
F0.23570226039551587
sg51
F0.13608276348795434
sg80
F0.16666666666666666
sg22
F0.12909944487358055
sg23
F0.16666666666666666
sg26
F0.12909944487358055
sg27
F0.18257418583505536
sg42
F0.13608276348795434
sg70
F0.2182178902359924
sg90
F0.14433756729740646
sg36
F0.14433756729740646
sg95
F0.1543033499620919
sg77
F0.2886751345948129
sg62
F0.18257418583505536
sg74
F0.12309149097933272
sg91
F0.14433756729740646
sg63
F0.24618298195866545
sg31
F0.14433756729740646
sg83
F0.14433756729740646
sg67
F0.1543033499620919
ssg102
g0
(tRp167
g37
F0.14907119849998599
sg78
F0.18257418583505536
sg100
F0.2
sg47
F0.3380617018914066
sg48
F0.1690308509457033
sg75
F0.3651483716701107
sg19
F0.1690308509457033
sg20
F0.14907119849998599
sg58
F0.1690308509457033
sg76
F0.1690308509457033
sg27
F0.2
sg28
F0.1690308509457033
sg82
F0.1414213562373095
sg90
F0.15811388300841897
sg61
F0.18257418583505536
sg62
F0.2
sg66
F0.18257418583505536
sg107
F0.3380617018914066
sg91
F0.31622776601683794
sg63
F0.13483997249264842
sg81
F0.2581988897471611
sg118
F0.31622776601683794
sg31
F0.15811388300841897
sg84
F0.15811388300841897
sg67
F0.1690308509457033
sg33
F0.1414213562373095
ssg9
g0
(tRp168
g88
F0.13608276348795434
sg86
F0.09622504486493763
sg5
F0.09245003270420485
sg7
F0.13608276348795434
sg3
F0.14907119849998599
sg10
F0.3333333333333333
sg13
F0.1259881576697424
sg47
F0.2519763153394848
sg16
F0.10540925533894598
sg93
F0.1259881576697424
sg72
F0.2721655269759087
sg17
F0.14907119849998599
sg48
F0.1259881576697424
sg19
F0.2519763153394848
sg20
F0.2222222222222222
sg73
F0.21081851067789195
sg41
F0.2519763153394848
sg51
F0.1111111111111111
sg76
F0.1259881576697424
sg23
F0.13608276348795434
sg89
F0.13608276348795434
sg25
F0.10050378152592121
sg55
F0.2222222222222222
sg95
F0.1259881576697424
sg94
F0.13608276348795434
sg69
F0.16666666666666666
sg27
F0.14907119849998599
sg50
F0.19245008972987526
sg57
F0.10540925533894598
sg31
F0.11785113019775793
sg90
F0.11785113019775793
sg103
F0.47140452079103173
sg60
F0.11785113019775793
sg38
F0.10050378152592121
sg45
F0.1259881576697424
sg8
F0.1259881576697424
sg82
F0.21081851067789195
sg96
F0.31622776601683794
sg67
F0.1259881576697424
sg56
F0.11785113019775793
ssg10
g0
(tRp169
g78
F0.13608276348795434
sg7
F0.13608276348795434
sg3
F0.14907119849998599
sg9
F0.3333333333333333
sg11
F0.2222222222222222
sg29
F0.10540925533894598
sg14
F0.21081851067789195
sg82
F0.21081851067789195
sg16
F0.21081851067789195
sg72
F0.2721655269759087
sg69
F0.3333333333333333
sg48
F0.1259881576697424
sg75
F0.13608276348795434
sg18
F0.29814239699997197
sg20
F0.1111111111111111
sg50
F0.19245008972987526
sg58
F0.1259881576697424
sg79
F0.11785113019775793
sg21
F0.1111111111111111
sg22
F0.21081851067789195
sg76
F0.2519763153394848
sg88
F0.13608276348795434
sg54
F0.2721655269759087
sg89
F0.13608276348795434
sg55
F0.1111111111111111
sg77
F0.23570226039551587
sg56
F0.11785113019775793
sg42
F0.1111111111111111
sg51
F0.1111111111111111
sg90
F0.11785113019775793
sg95
F0.1259881576697424
sg61
F0.2721655269759087
sg62
F0.14907119849998599
sg38
F0.10050378152592121
sg8
F0.1259881576697424
sg31
F0.11785113019775793
sg43
F0.08606629658238704
sg67
F0.1259881576697424
sg33
F0.10540925533894598
ssg71
g0
(tRp170
g62
F0.31622776601683794
sg16
F0.22360679774997896
sg93
F0.2672612419124244
sg55
F0.23570226039551587
sg75
F0.2886751345948129
sg70
F0.1889822365046136
sg81
F0.4082482904638631
sg39
F0.2672612419124244
sg19
F0.2672612419124244
sg42
F0.23570226039551587
sg11
F0.23570226039551587
sg74
F0.21320071635561041
ssg46
g0
(tRp171
g86
F0.23570226039551587
sg5
F0.22645540682891913
sg70
F0.1091089451179962
sg12
F0.13608276348795434
sg14
F0.12909944487358055
sg16
F0.12909944487358055
sg39
F0.3086066999241838
sg73
F0.12909944487358055
sg50
F0.23570226039551587
sg21
F0.2721655269759087
sg22
F0.2581988897471611
sg88
F0.16666666666666666
sg24
F0.20412414523193154
sg96
F0.12909944487358055
sg25
F0.12309149097933272
sg109
F0.23570226039551587
sg26
F0.12909944487358055
sg28
F0.1543033499620919
sg60
F0.2886751345948129
sg77
F0.14433756729740646
sg45
F0.3086066999241838
sg64
F0.13608276348795434
sg31
F0.14433756729740646
sg83
F0.14433756729740646
sg32
F0.21081851067789195
sg67
F0.1543033499620919
sg33
F0.12909944487358055
ssg47
g0
(tRp172
g37
F0.1259881576697424
sg5
F0.10482848367219183
sg102
F0.3380617018914066
sg9
F0.2519763153394848
sg12
F0.1259881576697424
sg15
F0.11952286093343936
sg16
F0.23904572186687872
sg72
F0.1543033499620919
sg48
F0.2857142857142857
sg75
F0.1543033499620919
sg20
F0.1259881576697424
sg73
F0.11952286093343936
sg41
F0.2857142857142857
sg76
F0.14285714285714285
sg88
F0.1543033499620919
sg24
F0.1889822365046136
sg55
F0.1259881576697424
sg94
F0.1543033499620919
sg56
F0.1336306209562122
sg50
F0.1091089451179962
sg28
F0.14285714285714285
sg54
F0.1543033499620919
sg90
F0.1336306209562122
sg36
F0.1336306209562122
sg77
F0.1336306209562122
sg62
F0.1690308509457033
sg91
F0.1336306209562122
sg38
F0.11396057645963795
sg63
F0.3418817293789138
sg81
F0.2182178902359924
sg8
F0.14285714285714285
sg82
F0.23904572186687872
sg96
F0.11952286093343936
sg66
F0.1543033499620919
ssg75
g0
(tRp173
g5
F0.11322770341445956
sg102
F0.3651483716701107
sg70
F0.1091089451179962
sg10
F0.13608276348795434
sg11
F0.13608276348795434
sg71
F0.2886751345948129
sg28
F0.1543033499620919
sg47
F0.1543033499620919
sg16
F0.12909944487358055
sg48
F0.1543033499620919
sg19
F0.1543033499620919
sg20
F0.13608276348795434
sg74
F0.24618298195866545
sg21
F0.13608276348795434
sg76
F0.1543033499620919
sg23
F0.16666666666666666
sg24
F0.20412414523193154
sg26
F0.12909944487358055
sg77
F0.14433756729740646
sg42
F0.13608276348795434
sg54
F0.16666666666666666
sg90
F0.14433756729740646
sg36
F0.2886751345948129
sg61
F0.16666666666666666
sg80
F0.16666666666666666
sg107
F0.1543033499620919
sg91
F0.2886751345948129
sg81
F0.23570226039551587
sg31
F0.14433756729740646
sg83
F0.14433756729740646
sg67
F0.1543033499620919
sg33
F0.12909944487358055
ssg40
g0
(tRp174
g86
F0.16666666666666666
sg77
F0.20412414523193154
sg16
F0.18257418583505536
sg93
F0.2182178902359924
sg38
F0.3481553119113957
sg34
F0.4082482904638631
sg30
F0.2182178902359924
sg39
F0.2182178902359924
sg56
F0.20412414523193154
sg49
F0.2182178902359924
sg41
F0.2182178902359924
sg25
F0.17407765595569785
sg80
F0.23570226039551587
sg43
F0.14907119849998599
sg15
F0.18257418583505536
sg67
F0.2182178902359924
sg33
F0.18257418583505536
ssg49
g0
(tRp175
g52
F0.1889822365046136
sg5
F0.10482848367219183
sg70
F0.10101525445522107
sg12
F0.2519763153394848
sg14
F0.11952286093343936
sg63
F0.11396057645963795
sg38
F0.11396057645963795
sg65
F0.1690308509457033
sg93
F0.14285714285714285
sg72
F0.1543033499620919
sg98
F0.1889822365046136
sg17
F0.1690308509457033
sg39
F0.14285714285714285
sg40
F0.2182178902359924
sg50
F0.1091089451179962
sg51
F0.1259881576697424
sg74
F0.11396057645963795
sg21
F0.1259881576697424
sg22
F0.11952286093343936
sg76
F0.2857142857142857
sg23
F0.1543033499620919
sg73
F0.11952286093343936
sg54
F0.1543033499620919
sg25
F0.2279211529192759
sg60
F0.1336306209562122
sg28
F0.14285714285714285
sg58
F0.14285714285714285
sg90
F0.1336306209562122
sg59
F0.1336306209562122
sg95
F0.14285714285714285
sg29
F0.11952286093343936
sg45
F0.14285714285714285
sg64
F0.1259881576697424
sg16
F0.11952286093343936
sg31
F0.2672612419124244
sg66
F0.1543033499620919
sg33
F0.23904572186687872
ssg41
g0
(tRp176
g86
F0.1091089451179962
sg23
F0.1543033499620919
sg70
F0.10101525445522107
sg9
F0.2519763153394848
sg29
F0.11952286093343936
sg13
F0.14285714285714285
sg42
F0.1259881576697424
sg83
F0.1336306209562122
sg15
F0.23904572186687872
sg47
F0.2857142857142857
sg16
F0.11952286093343936
sg66
F0.1543033499620919
sg48
F0.14285714285714285
sg20
F0.1259881576697424
sg73
F0.11952286093343936
sg50
F0.1091089451179962
sg58
F0.14285714285714285
sg74
F0.11396057645963795
sg88
F0.1543033499620919
sg40
F0.2182178902359924
sg89
F0.1543033499620919
sg55
F0.1259881576697424
sg26
F0.11952286093343936
sg28
F0.14285714285714285
sg34
F0.2672612419124244
sg57
F0.23904572186687872
sg103
F0.2672612419124244
sg79
F0.2672612419124244
sg80
F0.1543033499620919
sg38
F0.2279211529192759
sg63
F0.11396057645963795
sg30
F0.14285714285714285
sg82
F0.11952286093343936
sg96
F0.23904572186687872
sg43
F0.09759000729485333
ssg80
g0
(tRp177
g86
F0.23570226039551587
sg37
F0.13608276348795434
sg5
F0.11322770341445956
sg7
F0.16666666666666666
sg70
F0.1091089451179962
sg87
F0.1543033499620919
sg66
F0.16666666666666666
sg98
F0.20412414523193154
sg75
F0.16666666666666666
sg40
F0.23570226039551587
sg50
F0.11785113019775793
sg58
F0.1543033499620919
sg74
F0.12309149097933272
sg23
F0.16666666666666666
sg24
F0.20412414523193154
sg73
F0.12909944487358055
sg79
F0.14433756729740646
sg56
F0.2886751345948129
sg41
F0.1543033499620919
sg42
F0.13608276348795434
sg90
F0.14433756729740646
sg36
F0.2886751345948129
sg77
F0.14433756729740646
sg32
F0.10540925533894598
sg38
F0.3692744729379982
sg63
F0.12309149097933272
sg83
F0.2886751345948129
sg84
F0.14433756729740646
sg67
F0.3086066999241838
ssg21
g0
(tRp178
g86
F0.09622504486493763
sg37
F0.1111111111111111
sg5
F0.09245003270420485
sg69
F0.16666666666666666
sg70
F0.0890870806374748
sg10
F0.1111111111111111
sg12
F0.2222222222222222
sg13
F0.1259881576697424
sg14
F0.10540925533894598
sg45
F0.3779644730092272
sg15
F0.21081851067789195
sg46
F0.2721655269759087
sg16
F0.21081851067789195
sg17
F0.14907119849998599
sg75
F0.13608276348795434
sg49
F0.1259881576697424
sg50
F0.09622504486493763
sg51
F0.1111111111111111
sg74
F0.10050378152592121
sg22
F0.10540925533894598
sg76
F0.1259881576697424
sg24
F0.16666666666666666
sg53
F0.2721655269759087
sg25
F0.10050378152592121
sg55
F0.1111111111111111
sg60
F0.11785113019775793
sg109
F0.19245008972987526
sg26
F0.21081851067789195
sg61
F0.13608276348795434
sg3
F0.14907119849998599
sg28
F0.1259881576697424
sg54
F0.13608276348795434
sg59
F0.23570226039551587
sg95
F0.2519763153394848
sg79
F0.11785113019775793
sg62
F0.14907119849998599
sg63
F0.10050378152592121
sg81
F0.19245008972987526
sg64
F0.1111111111111111
sg31
F0.11785113019775793
sg32
F0.08606629658238704
sg33
F0.31622776601683794
ssg22
g0
(tRp179
g86
F0.09128709291752768
sg5
F0.08770580193070293
sg7
F0.12909944487358055
sg3
F0.1414213562373095
sg70
F0.1690308509457033
sg10
F0.21081851067789195
sg11
F0.10540925533894598
sg29
F0.2
sg14
F0.1
sg82
F0.2
sg63
F0.19069251784911848
sg46
F0.2581988897471611
sg87
F0.11952286093343936
sg16
F0.1
sg98
F0.15811388300841897
sg39
F0.11952286093343936
sg18
F0.282842712474619
sg49
F0.11952286093343936
sg50
F0.27386127875258304
sg58
F0.11952286093343936
sg21
F0.10540925533894598
sg88
F0.12909944487358055
sg55
F0.10540925533894598
sg26
F0.2
sg79
F0.11180339887498948
sg69
F0.15811388300841897
sg78
F0.12909944487358055
sg57
F0.1
sg51
F0.10540925533894598
sg90
F0.22360679774997896
sg59
F0.11180339887498948
sg95
F0.23904572186687872
sg61
F0.12909944487358055
sg32
F0.24494897427831783
sg91
F0.22360679774997896
sg38
F0.19069251784911848
sg45
F0.23904572186687872
sg64
F0.10540925533894598
sg31
F0.11180339887498948
sg84
F0.11180339887498948
sg67
F0.11952286093343936
sg33
F0.2
ssg25
g0
(tRp180
g5
F0.08362420100070908
sg6
F0.19069251784911848
sg3
F0.13483997249264842
sg9
F0.10050378152592121
sg11
F0.20100756305184242
sg14
F0.19069251784911848
sg63
F0.09090909090909091
sg46
F0.12309149097933272
sg87
F0.2279211529192759
sg65
F0.13483997249264842
sg93
F0.2279211529192759
sg17
F0.13483997249264842
sg39
F0.2279211529192759
sg19
F0.11396057645963795
sg73
F0.28603877677367767
sg49
F0.2279211529192759
sg50
F0.17407765595569785
sg51
F0.20100756305184242
sg74
F0.18181818181818182
sg21
F0.10050378152592121
sg76
F0.11396057645963795
sg24
F0.15075567228888181
sg96
F0.38138503569823695
sg40
F0.17407765595569785
sg95
F0.2279211529192759
sg94
F0.12309149097933272
sg26
F0.19069251784911848
sg27
F0.13483997249264842
sg28
F0.11396057645963795
sg57
F0.19069251784911848
sg103
F0.21320071635561041
sg60
F0.10660035817780521
sg77
F0.21320071635561041
sg29
F0.28603877677367767
sg45
F0.11396057645963795
sg30
F0.2279211529192759
sg64
F0.20100756305184242
sg16
F0.09534625892455924
sg82
F0.09534625892455924
sg83
F0.10660035817780521
sg32
F0.1556997888323046
sg33
F0.09534625892455924
ssg94
g0
(tRp181
g37
F0.13608276348795434
sg5
F0.22645540682891913
sg6
F0.12909944487358055
sg8
F0.3086066999241838
sg70
F0.1091089451179962
sg14
F0.12909944487358055
sg63
F0.12309149097933272
sg47
F0.1543033499620919
sg87
F0.1543033499620919
sg65
F0.18257418583505536
sg72
F0.16666666666666666
sg73
F0.2581988897471611
sg50
F0.11785113019775793
sg51
F0.13608276348795434
sg74
F0.12309149097933272
sg88
F0.16666666666666666
sg53
F0.16666666666666666
sg25
F0.12309149097933272
sg26
F0.12909944487358055
sg77
F0.14433756729740646
sg27
F0.18257418583505536
sg9
F0.13608276348795434
sg57
F0.12909944487358055
sg54
F0.16666666666666666
sg60
F0.14433756729740646
sg61
F0.16666666666666666
sg62
F0.18257418583505536
sg107
F0.1543033499620919
sg38
F0.12309149097933272
sg100
F0.18257418583505536
sg64
F0.13608276348795434
sg32
F0.21081851067789195
ssg28
g0
(tRp182
g5
F0.10482848367219183
sg3
F0.1690308509457033
sg70
F0.20203050891044214
sg13
F0.14285714285714285
sg15
F0.11952286093343936
sg46
F0.1543033499620919
sg47
F0.14285714285714285
sg98
F0.1889822365046136
sg75
F0.1543033499620919
sg18
F0.1690308509457033
sg73
F0.11952286093343936
sg49
F0.14285714285714285
sg41
F0.14285714285714285
sg74
F0.11396057645963795
sg21
F0.1259881576697424
sg23
F0.1543033499620919
sg89
F0.1543033499620919
sg25
F0.11396057645963795
sg55
F0.1259881576697424
sg26
F0.11952286093343936
sg102
F0.1690308509457033
sg50
F0.1091089451179962
sg57
F0.11952286093343936
sg82
F0.23904572186687872
sg36
F0.1336306209562122
sg59
F0.1336306209562122
sg77
F0.2672612419124244
sg62
F0.1690308509457033
sg107
F0.14285714285714285
sg91
F0.1336306209562122
sg29
F0.23904572186687872
sg63
F0.11396057645963795
sg81
F0.2182178902359924
sg64
F0.1259881576697424
sg31
F0.1336306209562122
sg96
F0.11952286093343936
sg32
F0.09759000729485333
sg33
F0.11952286093343936
ssg57
g0
(tRp183
g52
F0.15811388300841897
sg37
F0.21081851067789195
sg5
F0.08770580193070293
sg6
F0.2
sg70
F0.08451542547285165
sg12
F0.10540925533894598
sg13
F0.11952286093343936
sg16
F0.1
sg93
F0.11952286093343936
sg48
F0.35856858280031806
sg39
F0.11952286093343936
sg41
F0.23904572186687872
sg58
F0.11952286093343936
sg74
F0.09534625892455924
sg22
F0.1
sg88
F0.12909944487358055
sg96
F0.2
sg89
F0.12909944487358055
sg25
F0.19069251784911848
sg55
F0.21081851067789195
sg94
F0.12909944487358055
sg109
F0.18257418583505536
sg26
F0.2
sg27
F0.282842712474619
sg50
F0.18257418583505536
sg28
F0.11952286093343936
sg9
F0.10540925533894598
sg51
F0.21081851067789195
sg103
F0.22360679774997896
sg59
F0.11180339887498948
sg60
F0.11180339887498948
sg61
F0.3872983346207417
sg32
F0.16329931618554522
sg107
F0.11952286093343936
sg29
F0.3
sg63
F0.19069251784911848
sg30
F0.11952286093343936
sg64
F0.10540925533894598
sg31
F0.11180339887498948
sg83
F0.11180339887498948
sg66
F0.12909944487358055
sg67
F0.11952286093343936
ssg90
g0
(tRp184
g86
F0.3061862178478973
sg5
F0.09805806756909202
sg6
F0.11180339887498948
sg7
F0.14433756729740646
sg102
F0.15811388300841897
sg9
F0.11785113019775793
sg10
F0.11785113019775793
sg13
F0.1336306209562122
sg14
F0.11180339887498948
sg15
F0.11180339887498948
sg47
F0.1336306209562122
sg72
F0.14433756729740646
sg98
F0.17677669529663687
sg48
F0.1336306209562122
sg75
F0.14433756729740646
sg20
F0.23570226039551587
sg49
F0.1336306209562122
sg50
F0.20412414523193154
sg58
F0.1336306209562122
sg80
F0.14433756729740646
sg22
F0.22360679774997896
sg76
F0.2672612419124244
sg53
F0.14433756729740646
sg56
F0.125
sg51
F0.11785113019775793
sg36
F0.125
sg95
F0.1336306209562122
sg79
F0.125
sg74
F0.10660035817780521
sg91
F0.25
sg38
F0.21320071635561041
sg45
F0.2672612419124244
sg64
F0.23570226039551587
sg96
F0.22360679774997896
sg84
F0.25
sg33
F0.11180339887498948
ssg91
g0
(tRp185
g37
F0.11785113019775793
sg7
F0.14433756729740646
sg102
F0.31622776601683794
sg70
F0.0944911182523068
sg11
F0.23570226039551587
sg78
F0.14433756729740646
sg63
F0.10660035817780521
sg15
F0.11180339887498948
sg47
F0.1336306209562122
sg65
F0.15811388300841897
sg98
F0.17677669529663687
sg48
F0.1336306209562122
sg75
F0.2886751345948129
sg18
F0.15811388300841897
sg19
F0.1336306209562122
sg20
F0.23570226039551587
sg73
F0.11180339887498948
sg51
F0.11785113019775793
sg74
F0.10660035817780521
sg22
F0.22360679774997896
sg76
F0.1336306209562122
sg53
F0.14433756729740646
sg89
F0.14433756729740646
sg55
F0.11785113019775793
sg60
F0.125
sg56
F0.125
sg28
F0.1336306209562122
sg54
F0.14433756729740646
sg90
F0.25
sg59
F0.25
sg95
F0.1336306209562122
sg79
F0.125
sg107
F0.1336306209562122
sg29
F0.11180339887498948
sg45
F0.1336306209562122
sg82
F0.11180339887498948
sg84
F0.375
sg67
F0.1336306209562122
sg33
F0.11180339887498948
ssg29
g0
(tRp186
g5
F0.08770580193070293
sg6
F0.2
sg3
F0.1414213562373095
sg70
F0.08451542547285165
sg10
F0.10540925533894598
sg11
F0.31622776601683794
sg12
F0.10540925533894598
sg13
F0.11952286093343936
sg14
F0.2
sg15
F0.1
sg87
F0.11952286093343936
sg65
F0.1414213562373095
sg54
F0.12909944487358055
sg18
F0.282842712474619
sg20
F0.10540925533894598
sg49
F0.11952286093343936
sg41
F0.11952286093343936
sg51
F0.10540925533894598
sg22
F0.2
sg96
F0.1
sg89
F0.2581988897471611
sg25
F0.28603877677367767
sg55
F0.21081851067789195
sg26
F0.1
sg50
F0.18257418583505536
sg42
F0.10540925533894598
sg28
F0.23904572186687872
sg57
F0.3
sg58
F0.11952286093343936
sg59
F0.11180339887498948
sg60
F0.22360679774997896
sg79
F0.11180339887498948
sg84
F0.11180339887498948
sg91
F0.11180339887498948
sg63
F0.09534625892455924
sg16
F0.1
sg82
F0.3
sg83
F0.33541019662496846
sg32
F0.24494897427831783
ssg100
g0
(tRp187
g37
F0.14907119849998599
sg6
F0.1414213562373095
sg102
F0.2
sg70
F0.11952286093343936
sg11
F0.14907119849998599
sg93
F0.1690308509457033
sg72
F0.18257418583505536
sg98
F0.22360679774997896
sg48
F0.1690308509457033
sg20
F0.14907119849998599
sg58
F0.1690308509457033
sg88
F0.18257418583505536
sg53
F0.18257418583505536
sg89
F0.18257418583505536
sg55
F0.14907119849998599
sg94
F0.18257418583505536
sg26
F0.1414213562373095
sg54
F0.18257418583505536
sg60
F0.15811388300841897
sg79
F0.15811388300841897
sg66
F0.18257418583505536
sg107
F0.1690308509457033
sg63
F0.13483997249264842
sg30
F0.1690308509457033
sg64
F0.14907119849998599
sg118
F0.31622776601683794
sg83
F0.15811388300841897
sg84
F0.15811388300841897
sg33
F0.282842712474619
ssg81
g0
(tRp188
g59
F0.20412414523193154
sg53
F0.23570226039551587
sg71
F0.4082482904638631
sg62
F0.2581988897471611
sg45
F0.2182178902359924
sg95
F0.2182178902359924
sg102
F0.2581988897471611
sg63
F0.17407765595569785
sg75
F0.23570226039551587
sg11
F0.19245008972987526
sg13
F0.2182178902359924
sg42
F0.19245008972987526
sg28
F0.2182178902359924
sg82
F0.18257418583505536
sg70
F0.1543033499620919
sg74
F0.17407765595569785
sg21
F0.19245008972987526
sg47
F0.2182178902359924
ssg64
g0
(tRp189
g86
F0.19245008972987526
sg6
F0.31622776601683794
sg70
F0.0890870806374748
sg12
F0.2222222222222222
sg13
F0.1259881576697424
sg14
F0.21081851067789195
sg82
F0.10540925533894598
sg42
F0.1111111111111111
sg45
F0.1259881576697424
sg15
F0.10540925533894598
sg46
F0.13608276348795434
sg87
F0.2519763153394848
sg93
F0.1259881576697424
sg98
F0.16666666666666666
sg39
F0.1259881576697424
sg49
F0.1259881576697424
sg50
F0.09622504486493763
sg58
F0.1259881576697424
sg74
F0.10050378152592121
sg21
F0.1111111111111111
sg22
F0.10540925533894598
sg23
F0.13608276348795434
sg25
F0.20100756305184242
sg95
F0.2519763153394848
sg94
F0.13608276348795434
sg26
F0.21081851067789195
sg27
F0.29814239699997197
sg78
F0.13608276348795434
sg28
F0.1259881576697424
sg57
F0.10540925533894598
sg54
F0.13608276348795434
sg90
F0.23570226039551587
sg60
F0.11785113019775793
sg38
F0.20100756305184242
sg100
F0.14907119849998599
sg30
F0.2519763153394848
sg31
F0.11785113019775793
sg96
F0.21081851067789195
sg84
F0.11785113019775793
sg33
F0.10540925533894598
ssg66
g0
(tRp190
g88
F0.16666666666666666
sg5
F0.11322770341445956
sg102
F0.18257418583505536
sg70
F0.1091089451179962
sg12
F0.13608276348795434
sg100
F0.18257418583505536
sg15
F0.12909944487358055
sg47
F0.1543033499620919
sg87
F0.1543033499620919
sg65
F0.18257418583505536
sg48
F0.1543033499620919
sg19
F0.1543033499620919
sg49
F0.1543033499620919
sg41
F0.1543033499620919
sg51
F0.408248290463863
sg80
F0.16666666666666666
sg76
F0.1543033499620919
sg52
F0.20412414523193154
sg56
F0.14433756729740646
sg78
F0.16666666666666666
sg57
F0.12909944487358055
sg58
F0.1543033499620919
sg59
F0.2886751345948129
sg32
F0.10540925533894598
sg107
F0.1543033499620919
sg63
F0.24618298195866545
sg30
F0.1543033499620919
sg16
F0.12909944487358055
sg118
F0.2886751345948129
sg96
F0.12909944487358055
sg84
F0.14433756729740646
sg67
F0.1543033499620919
ssg67
g0
(tRp191
g86
F0.1091089451179962
sg37
F0.1259881576697424
sg5
F0.10482848367219183
sg6
F0.11952286093343936
sg7
F0.1543033499620919
sg102
F0.1690308509457033
sg9
F0.1259881576697424
sg10
F0.1259881576697424
sg12
F0.1259881576697424
sg46
F0.1543033499620919
sg87
F0.2857142857142857
sg72
F0.1543033499620919
sg48
F0.14285714285714285
sg75
F0.1543033499620919
sg19
F0.14285714285714285
sg20
F0.1259881576697424
sg40
F0.2182178902359924
sg50
F0.1091089451179962
sg80
F0.3086066999241838
sg22
F0.11952286093343936
sg88
F0.3086066999241838
sg89
F0.1543033499620919
sg77
F0.1336306209562122
sg69
F0.1889822365046136
sg78
F0.1543033499620919
sg56
F0.2672612419124244
sg57
F0.11952286093343936
sg61
F0.1543033499620919
sg66
F0.1543033499620919
sg91
F0.1336306209562122
sg38
F0.11396057645963795
sg63
F0.2279211529192759
sg82
F0.11952286093343936
sg83
F0.1336306209562122
sg32
F0.19518001458970666
sg33
F0.11952286093343936
ss.